declare i32 @llvm.eh.typeid.for(ptr)
declare i32 @__gxx_personality_v0(...)
declare ptr @__cxa_begin_catch(ptr)
declare void @__cxa_end_catch()
@_ZTIN11scalanative16ExceptionWrapperE = external constant { ptr, ptr, ptr }

@"_SM7__constG1-0" = private unnamed_addr constant { ptr, ptr, i32, i32, [26 x i16] } { ptr @"_SM35scala.scalanative.runtime.CharArrayG4type", ptr null, i32 26, i32 2, [26 x i16] [ i16 115, i16 99, i16 97, i16 108, i16 97, i16 46, i16 115, i16 121, i16 115, i16 46, i16 112, i16 114, i16 111, i16 99, i16 101, i16 115, i16 115, i16 46, i16 66, i16 97, i16 115, i16 105, i16 99, i16 73, i16 79, i16 36 ] }
@"_SM7__constG1-1" = private unnamed_addr constant { ptr, ptr, ptr, i32, i32, i32 } { ptr @"_SM16java.lang.StringG4type", ptr null, ptr @"_SM7__constG1-0", i32 0, i32 26, i32 -767989192 }
@"_SM7__constG1-2" = private unnamed_addr constant [4 x i32] [ i32 16, i32 24, i32 32, i32 -1 ]
@"_SM7__constG1-3" = private unnamed_addr constant { ptr, ptr, i32, i32, [37 x i16] } { ptr @"_SM35scala.scalanative.runtime.CharArrayG4type", ptr null, i32 37, i32 2, [37 x i16] [ i16 115, i16 99, i16 97, i16 108, i16 97, i16 46, i16 115, i16 121, i16 115, i16 46, i16 112, i16 114, i16 111, i16 99, i16 101, i16 115, i16 115, i16 46, i16 66, i16 97, i16 115, i16 105, i16 99, i16 73, i16 79, i16 36, i16 36, i16 36, i16 76, i16 97, i16 109, i16 98, i16 100, i16 97, i16 36, i16 49, i16 49 ] }
@"_SM7__constG1-4" = private unnamed_addr constant { ptr, ptr, ptr, i32, i32, i32 } { ptr @"_SM16java.lang.StringG4type", ptr null, ptr @"_SM7__constG1-3", i32 0, i32 37, i32 -611549627 }
@"_SM7__constG1-5" = private unnamed_addr constant [2 x i32] [ i32 16, i32 -1 ]
@"_SM7__constG1-6" = private unnamed_addr constant { ptr, ptr, i32, i32, [37 x i16] } { ptr @"_SM35scala.scalanative.runtime.CharArrayG4type", ptr null, i32 37, i32 2, [37 x i16] [ i16 115, i16 99, i16 97, i16 108, i16 97, i16 46, i16 115, i16 121, i16 115, i16 46, i16 112, i16 114, i16 111, i16 99, i16 101, i16 115, i16 115, i16 46, i16 66, i16 97, i16 115, i16 105, i16 99, i16 73, i16 79, i16 36, i16 36, i16 36, i16 76, i16 97, i16 109, i16 98, i16 100, i16 97, i16 36, i16 49, i16 50 ] }
@"_SM7__constG1-7" = private unnamed_addr constant { ptr, ptr, ptr, i32, i32, i32 } { ptr @"_SM16java.lang.StringG4type", ptr null, ptr @"_SM7__constG1-6", i32 0, i32 37, i32 -611549626 }
@"_SM7__constG1-8" = private unnamed_addr constant { ptr, ptr, i32, i32, [36 x i16] } { ptr @"_SM35scala.scalanative.runtime.CharArrayG4type", ptr null, i32 36, i32 2, [36 x i16] [ i16 115, i16 99, i16 97, i16 108, i16 97, i16 46, i16 115, i16 121, i16 115, i16 46, i16 112, i16 114, i16 111, i16 99, i16 101, i16 115, i16 115, i16 46, i16 66, i16 97, i16 115, i16 105, i16 99, i16 73, i16 79, i16 36, i16 36, i16 36, i16 76, i16 97, i16 109, i16 98, i16 100, i16 97, i16 36, i16 52 ] }
@"_SM7__constG1-9" = private unnamed_addr constant { ptr, ptr, ptr, i32, i32, i32 } { ptr @"_SM16java.lang.StringG4type", ptr null, ptr @"_SM7__constG1-8", i32 0, i32 36, i32 950103919 }
@"_SM7__constG2-10" = private unnamed_addr constant { ptr, ptr, i32, i32, [36 x i16] } { ptr @"_SM35scala.scalanative.runtime.CharArrayG4type", ptr null, i32 36, i32 2, [36 x i16] [ i16 115, i16 99, i16 97, i16 108, i16 97, i16 46, i16 115, i16 121, i16 115, i16 46, i16 112, i16 114, i16 111, i16 99, i16 101, i16 115, i16 115, i16 46, i16 66, i16 97, i16 115, i16 105, i16 99, i16 73, i16 79, i16 36, i16 36, i16 36, i16 76, i16 97, i16 109, i16 98, i16 100, i16 97, i16 36, i16 53 ] }
@"_SM7__constG2-11" = private unnamed_addr constant { ptr, ptr, ptr, i32, i32, i32 } { ptr @"_SM16java.lang.StringG4type", ptr null, ptr @"_SM7__constG2-10", i32 0, i32 36, i32 950103920 }
@"_SM7__constG2-12" = private unnamed_addr constant { ptr, ptr, i32, i32, [36 x i16] } { ptr @"_SM35scala.scalanative.runtime.CharArrayG4type", ptr null, i32 36, i32 2, [36 x i16] [ i16 115, i16 99, i16 97, i16 108, i16 97, i16 46, i16 115, i16 121, i16 115, i16 46, i16 112, i16 114, i16 111, i16 99, i16 101, i16 115, i16 115, i16 46, i16 66, i16 97, i16 115, i16 105, i16 99, i16 73, i16 79, i16 36, i16 36, i16 36, i16 76, i16 97, i16 109, i16 98, i16 100, i16 97, i16 36, i16 54 ] }
@"_SM7__constG2-13" = private unnamed_addr constant { ptr, ptr, ptr, i32, i32, i32 } { ptr @"_SM16java.lang.StringG4type", ptr null, ptr @"_SM7__constG2-12", i32 0, i32 36, i32 950103921 }
@"_SM7__constG2-14" = private unnamed_addr constant { ptr, ptr, i32, i32, [25 x i16] } { ptr @"_SM35scala.scalanative.runtime.CharArrayG4type", ptr null, i32 25, i32 2, [25 x i16] [ i16 115, i16 99, i16 97, i16 108, i16 97, i16 46, i16 115, i16 121, i16 115, i16 46, i16 112, i16 114, i16 111, i16 99, i16 101, i16 115, i16 115, i16 46, i16 80, i16 114, i16 111, i16 99, i16 101, i16 115, i16 115 ] }
@"_SM7__constG2-15" = private unnamed_addr constant { ptr, ptr, ptr, i32, i32, i32 } { ptr @"_SM16java.lang.StringG4type", ptr null, ptr @"_SM7__constG2-14", i32 0, i32 25, i32 -2080008185 }
@"_SM7__constG2-16" = private unnamed_addr constant { ptr, ptr, i32, i32, [26 x i16] } { ptr @"_SM35scala.scalanative.runtime.CharArrayG4type", ptr null, i32 26, i32 2, [26 x i16] [ i16 115, i16 99, i16 97, i16 108, i16 97, i16 46, i16 115, i16 121, i16 115, i16 46, i16 112, i16 114, i16 111, i16 99, i16 101, i16 115, i16 115, i16 46, i16 80, i16 114, i16 111, i16 99, i16 101, i16 115, i16 115, i16 36 ] }
@"_SM7__constG2-17" = private unnamed_addr constant { ptr, ptr, ptr, i32, i32, i32 } { ptr @"_SM16java.lang.StringG4type", ptr null, ptr @"_SM7__constG2-16", i32 0, i32 26, i32 -55744259 }
@"_SM7__constG2-18" = private unnamed_addr constant { ptr, ptr, i32, i32, [32 x i16] } { ptr @"_SM35scala.scalanative.runtime.CharArrayG4type", ptr null, i32 32, i32 2, [32 x i16] [ i16 115, i16 99, i16 97, i16 108, i16 97, i16 46, i16 115, i16 121, i16 115, i16 46, i16 112, i16 114, i16 111, i16 99, i16 101, i16 115, i16 115, i16 46, i16 80, i16 114, i16 111, i16 99, i16 101, i16 115, i16 115, i16 66, i16 117, i16 105, i16 108, i16 100, i16 101, i16 114 ] }
@"_SM7__constG2-19" = private unnamed_addr constant { ptr, ptr, ptr, i32, i32, i32 } { ptr @"_SM16java.lang.StringG4type", ptr null, ptr @"_SM7__constG2-18", i32 0, i32 32, i32 -685495916 }
@"_SM7__constG2-20" = private unnamed_addr constant { ptr, ptr, i32, i32, [33 x i16] } { ptr @"_SM35scala.scalanative.runtime.CharArrayG4type", ptr null, i32 33, i32 2, [33 x i16] [ i16 115, i16 99, i16 97, i16 108, i16 97, i16 46, i16 115, i16 121, i16 115, i16 46, i16 112, i16 114, i16 111, i16 99, i16 101, i16 115, i16 115, i16 46, i16 80, i16 114, i16 111, i16 99, i16 101, i16 115, i16 115, i16 66, i16 117, i16 105, i16 108, i16 100, i16 101, i16 114, i16 36 ] }
@"_SM7__constG2-21" = private unnamed_addr constant { ptr, ptr, ptr, i32, i32, i32 } { ptr @"_SM16java.lang.StringG4type", ptr null, ptr @"_SM7__constG2-20", i32 0, i32 33, i32 224463120 }
@"_SM7__constG2-22" = private unnamed_addr constant [1 x i32] [ i32 -1 ]
@"_SM7__constG2-23" = private unnamed_addr constant { ptr, ptr, i32, i32, [37 x i16] } { ptr @"_SM35scala.scalanative.runtime.CharArrayG4type", ptr null, i32 37, i32 2, [37 x i16] [ i16 115, i16 99, i16 97, i16 108, i16 97, i16 46, i16 115, i16 121, i16 115, i16 46, i16 112, i16 114, i16 111, i16 99, i16 101, i16 115, i16 115, i16 46, i16 80, i16 114, i16 111, i16 99, i16 101, i16 115, i16 115, i16 66, i16 117, i16 105, i16 108, i16 100, i16 101, i16 114, i16 36, i16 83, i16 105, i16 110, i16 107 ] }
@"_SM7__constG2-24" = private unnamed_addr constant { ptr, ptr, ptr, i32, i32, i32 } { ptr @"_SM16java.lang.StringG4type", ptr null, ptr @"_SM7__constG2-23", i32 0, i32 37, i32 -188918845 }
@"_SM7__constG2-25" = private unnamed_addr constant { ptr, ptr, i32, i32, [39 x i16] } { ptr @"_SM35scala.scalanative.runtime.CharArrayG4type", ptr null, i32 39, i32 2, [39 x i16] [ i16 115, i16 99, i16 97, i16 108, i16 97, i16 46, i16 115, i16 121, i16 115, i16 46, i16 112, i16 114, i16 111, i16 99, i16 101, i16 115, i16 115, i16 46, i16 80, i16 114, i16 111, i16 99, i16 101, i16 115, i16 115, i16 66, i16 117, i16 105, i16 108, i16 100, i16 101, i16 114, i16 36, i16 83, i16 111, i16 117, i16 114, i16 99, i16 101 ] }
@"_SM7__constG2-26" = private unnamed_addr constant { ptr, ptr, ptr, i32, i32, i32 } { ptr @"_SM16java.lang.StringG4type", ptr null, ptr @"_SM7__constG2-25", i32 0, i32 39, i32 -1156624053 }
@"_SM7__constG2-27" = private unnamed_addr constant { ptr, ptr, i32, i32, [36 x i16] } { ptr @"_SM35scala.scalanative.runtime.CharArrayG4type", ptr null, i32 36, i32 2, [36 x i16] [ i16 115, i16 99, i16 97, i16 108, i16 97, i16 46, i16 115, i16 121, i16 115, i16 46, i16 112, i16 114, i16 111, i16 99, i16 101, i16 115, i16 115, i16 46, i16 80, i16 114, i16 111, i16 99, i16 101, i16 115, i16 115, i16 66, i16 117, i16 105, i16 108, i16 100, i16 101, i16 114, i16 73, i16 109, i16 112, i16 108 ] }
@"_SM7__constG2-28" = private unnamed_addr constant { ptr, ptr, ptr, i32, i32, i32 } { ptr @"_SM16java.lang.StringG4type", ptr null, ptr @"_SM7__constG2-27", i32 0, i32 36, i32 -282061356 }
@"_SM7__constG2-29" = private unnamed_addr constant { ptr, ptr, i32, i32, [52 x i16] } { ptr @"_SM35scala.scalanative.runtime.CharArrayG4type", ptr null, i32 52, i32 2, [52 x i16] [ i16 115, i16 99, i16 97, i16 108, i16 97, i16 46, i16 115, i16 121, i16 115, i16 46, i16 112, i16 114, i16 111, i16 99, i16 101, i16 115, i16 115, i16 46, i16 80, i16 114, i16 111, i16 99, i16 101, i16 115, i16 115, i16 66, i16 117, i16 105, i16 108, i16 100, i16 101, i16 114, i16 73, i16 109, i16 112, i16 108, i16 36, i16 65, i16 98, i16 115, i16 116, i16 114, i16 97, i16 99, i16 116, i16 66, i16 117, i16 105, i16 108, i16 100, i16 101, i16 114 ] }
@"_SM7__constG2-30" = private unnamed_addr constant { ptr, ptr, ptr, i32, i32, i32 } { ptr @"_SM16java.lang.StringG4type", ptr null, ptr @"_SM7__constG2-29", i32 0, i32 52, i32 -1548458455 }
@"_SM7__constG2-31" = private unnamed_addr constant { ptr, ptr, i32, i32, [43 x i16] } { ptr @"_SM35scala.scalanative.runtime.CharArrayG4type", ptr null, i32 43, i32 2, [43 x i16] [ i16 115, i16 99, i16 97, i16 108, i16 97, i16 46, i16 115, i16 121, i16 115, i16 46, i16 112, i16 114, i16 111, i16 99, i16 101, i16 115, i16 115, i16 46, i16 80, i16 114, i16 111, i16 99, i16 101, i16 115, i16 115, i16 66, i16 117, i16 105, i16 108, i16 100, i16 101, i16 114, i16 73, i16 109, i16 112, i16 108, i16 36, i16 83, i16 105, i16 109, i16 112, i16 108, i16 101 ] }
@"_SM7__constG2-32" = private unnamed_addr constant { ptr, ptr, ptr, i32, i32, i32 } { ptr @"_SM16java.lang.StringG4type", ptr null, ptr @"_SM7__constG2-31", i32 0, i32 43, i32 502589090 }
@"_SM7__constG2-33" = private unnamed_addr constant [3 x i32] [ i32 16, i32 32, i32 -1 ]
@"_SM7__constG2-34" = private unnamed_addr constant { ptr, ptr, i32, i32, [53 x i16] } { ptr @"_SM35scala.scalanative.runtime.CharArrayG4type", ptr null, i32 53, i32 2, [53 x i16] [ i16 115, i16 99, i16 97, i16 108, i16 97, i16 46, i16 115, i16 121, i16 115, i16 46, i16 112, i16 114, i16 111, i16 99, i16 101, i16 115, i16 115, i16 46, i16 80, i16 114, i16 111, i16 99, i16 101, i16 115, i16 115, i16 66, i16 117, i16 105, i16 108, i16 100, i16 101, i16 114, i16 73, i16 109, i16 112, i16 108, i16 36, i16 83, i16 105, i16 109, i16 112, i16 108, i16 101, i16 36, i16 36, i16 76, i16 97, i16 109, i16 98, i16 100, i16 97, i16 36, i16 49 ] }
@"_SM7__constG2-35" = private unnamed_addr constant { ptr, ptr, ptr, i32, i32, i32 } { ptr @"_SM16java.lang.StringG4type", ptr null, ptr @"_SM7__constG2-34", i32 0, i32 53, i32 -1008472234 }
@"_SM7__constG2-36" = private unnamed_addr constant { ptr, ptr, i32, i32, [53 x i16] } { ptr @"_SM35scala.scalanative.runtime.CharArrayG4type", ptr null, i32 53, i32 2, [53 x i16] [ i16 115, i16 99, i16 97, i16 108, i16 97, i16 46, i16 115, i16 121, i16 115, i16 46, i16 112, i16 114, i16 111, i16 99, i16 101, i16 115, i16 115, i16 46, i16 80, i16 114, i16 111, i16 99, i16 101, i16 115, i16 115, i16 66, i16 117, i16 105, i16 108, i16 100, i16 101, i16 114, i16 73, i16 109, i16 112, i16 108, i16 36, i16 83, i16 105, i16 109, i16 112, i16 108, i16 101, i16 36, i16 36, i16 76, i16 97, i16 109, i16 98, i16 100, i16 97, i16 36, i16 50 ] }
@"_SM7__constG2-37" = private unnamed_addr constant { ptr, ptr, ptr, i32, i32, i32 } { ptr @"_SM16java.lang.StringG4type", ptr null, ptr @"_SM7__constG2-36", i32 0, i32 53, i32 -1008472233 }
@"_SM7__constG2-38" = private unnamed_addr constant { ptr, ptr, i32, i32, [53 x i16] } { ptr @"_SM35scala.scalanative.runtime.CharArrayG4type", ptr null, i32 53, i32 2, [53 x i16] [ i16 115, i16 99, i16 97, i16 108, i16 97, i16 46, i16 115, i16 121, i16 115, i16 46, i16 112, i16 114, i16 111, i16 99, i16 101, i16 115, i16 115, i16 46, i16 80, i16 114, i16 111, i16 99, i16 101, i16 115, i16 115, i16 66, i16 117, i16 105, i16 108, i16 100, i16 101, i16 114, i16 73, i16 109, i16 112, i16 108, i16 36, i16 83, i16 105, i16 109, i16 112, i16 108, i16 101, i16 36, i16 36, i16 76, i16 97, i16 109, i16 98, i16 100, i16 97, i16 36, i16 51 ] }
@"_SM7__constG2-39" = private unnamed_addr constant { ptr, ptr, ptr, i32, i32, i32 } { ptr @"_SM16java.lang.StringG4type", ptr null, ptr @"_SM7__constG2-38", i32 0, i32 53, i32 -1008472232 }
@"_SM7__constG2-40" = private unnamed_addr constant { ptr, ptr, i32, i32, [33 x i16] } { ptr @"_SM35scala.scalanative.runtime.CharArrayG4type", ptr null, i32 33, i32 2, [33 x i16] [ i16 115, i16 99, i16 97, i16 108, i16 97, i16 46, i16 115, i16 121, i16 115, i16 46, i16 112, i16 114, i16 111, i16 99, i16 101, i16 115, i16 115, i16 46, i16 80, i16 114, i16 111, i16 99, i16 101, i16 115, i16 115, i16 67, i16 114, i16 101, i16 97, i16 116, i16 105, i16 111, i16 110 ] }
@"_SM7__constG2-41" = private unnamed_addr constant { ptr, ptr, ptr, i32, i32, i32 } { ptr @"_SM16java.lang.StringG4type", ptr null, ptr @"_SM7__constG2-40", i32 0, i32 33, i32 -819432442 }
@"_SM7__constG2-42" = private unnamed_addr constant { ptr, ptr, i32, i32, [43 x i16] } { ptr @"_SM35scala.scalanative.runtime.CharArrayG4type", ptr null, i32 43, i32 2, [43 x i16] [ i16 115, i16 99, i16 97, i16 108, i16 97, i16 46, i16 115, i16 121, i16 115, i16 46, i16 112, i16 114, i16 111, i16 99, i16 101, i16 115, i16 115, i16 46, i16 80, i16 114, i16 111, i16 99, i16 101, i16 115, i16 115, i16 67, i16 114, i16 101, i16 97, i16 116, i16 105, i16 111, i16 110, i16 36, i16 36, i16 76, i16 97, i16 109, i16 98, i16 100, i16 97, i16 36, i16 50 ] }
@"_SM7__constG2-43" = private unnamed_addr constant { ptr, ptr, ptr, i32, i32, i32 } { ptr @"_SM16java.lang.StringG4type", ptr null, ptr @"_SM7__constG2-42", i32 0, i32 43, i32 -249491525 }
@"_SM7__constG2-44" = private unnamed_addr constant [3 x i32] [ i32 16, i32 24, i32 -1 ]
@"_SM7__constG2-45" = private unnamed_addr constant { ptr, ptr, i32, i32, [27 x i16] } { ptr @"_SM35scala.scalanative.runtime.CharArrayG4type", ptr null, i32 27, i32 2, [27 x i16] [ i16 115, i16 99, i16 97, i16 108, i16 97, i16 46, i16 115, i16 121, i16 115, i16 46, i16 112, i16 114, i16 111, i16 99, i16 101, i16 115, i16 115, i16 46, i16 80, i16 114, i16 111, i16 99, i16 101, i16 115, i16 115, i16 73, i16 79 ] }
@"_SM7__constG2-46" = private unnamed_addr constant { ptr, ptr, ptr, i32, i32, i32 } { ptr @"_SM16java.lang.StringG4type", ptr null, ptr @"_SM7__constG2-45", i32 0, i32 27, i32 -1728070803 }
@"_SM7__constG2-47" = private unnamed_addr constant [4 x i32] [ i32 16, i32 24, i32 40, i32 -1 ]
@"_SM7__constG2-48" = private unnamed_addr constant { ptr, ptr, i32, i32, [29 x i16] } { ptr @"_SM35scala.scalanative.runtime.CharArrayG4type", ptr null, i32 29, i32 2, [29 x i16] [ i16 115, i16 99, i16 97, i16 108, i16 97, i16 46, i16 115, i16 121, i16 115, i16 46, i16 112, i16 114, i16 111, i16 99, i16 101, i16 115, i16 115, i16 46, i16 80, i16 114, i16 111, i16 99, i16 101, i16 115, i16 115, i16 73, i16 109, i16 112, i16 108 ] }
@"_SM7__constG2-49" = private unnamed_addr constant { ptr, ptr, ptr, i32, i32, i32 } { ptr @"_SM16java.lang.StringG4type", ptr null, ptr @"_SM7__constG2-48", i32 0, i32 29, i32 1476334279 }
@"_SM7__constG2-50" = private unnamed_addr constant { ptr, ptr, i32, i32, [43 x i16] } { ptr @"_SM35scala.scalanative.runtime.CharArrayG4type", ptr null, i32 43, i32 2, [43 x i16] [ i16 115, i16 99, i16 97, i16 108, i16 97, i16 46, i16 115, i16 121, i16 115, i16 46, i16 112, i16 114, i16 111, i16 99, i16 101, i16 115, i16 115, i16 46, i16 80, i16 114, i16 111, i16 99, i16 101, i16 115, i16 115, i16 73, i16 109, i16 112, i16 108, i16 36, i16 83, i16 105, i16 109, i16 112, i16 108, i16 101, i16 80, i16 114, i16 111, i16 99, i16 101, i16 115, i16 115 ] }
@"_SM7__constG2-51" = private unnamed_addr constant { ptr, ptr, ptr, i32, i32, i32 } { ptr @"_SM16java.lang.StringG4type", ptr null, ptr @"_SM7__constG2-50", i32 0, i32 43, i32 -1823716064 }
@"_SM7__constG2-52" = private unnamed_addr constant [5 x i32] [ i32 16, i32 24, i32 32, i32 40, i32 -1 ]
@"_SM7__constG2-53" = private unnamed_addr constant { ptr, ptr, i32, i32, [53 x i16] } { ptr @"_SM35scala.scalanative.runtime.CharArrayG4type", ptr null, i32 53, i32 2, [53 x i16] [ i16 115, i16 99, i16 97, i16 108, i16 97, i16 46, i16 115, i16 121, i16 115, i16 46, i16 112, i16 114, i16 111, i16 99, i16 101, i16 115, i16 115, i16 46, i16 80, i16 114, i16 111, i16 99, i16 101, i16 115, i16 115, i16 73, i16 109, i16 112, i16 108, i16 36, i16 83, i16 105, i16 109, i16 112, i16 108, i16 101, i16 80, i16 114, i16 111, i16 99, i16 101, i16 115, i16 115, i16 36, i16 36, i16 76, i16 97, i16 109, i16 98, i16 100, i16 97, i16 36, i16 49 ] }
@"_SM7__constG2-54" = private unnamed_addr constant { ptr, ptr, ptr, i32, i32, i32 } { ptr @"_SM16java.lang.StringG4type", ptr null, ptr @"_SM7__constG2-53", i32 0, i32 53, i32 541315156 }
@"_SM7__constG2-55" = private unnamed_addr constant { ptr, ptr, i32, i32, [36 x i16] } { ptr @"_SM35scala.scalanative.runtime.CharArrayG4type", ptr null, i32 36, i32 2, [36 x i16] [ i16 115, i16 99, i16 97, i16 108, i16 97, i16 46, i16 115, i16 121, i16 115, i16 46, i16 112, i16 114, i16 111, i16 99, i16 101, i16 115, i16 115, i16 46, i16 80, i16 114, i16 111, i16 99, i16 101, i16 115, i16 115, i16 73, i16 109, i16 112, i16 108, i16 36, i16 83, i16 112, i16 97, i16 119, i16 110, i16 36 ] }
@"_SM7__constG2-56" = private unnamed_addr constant { ptr, ptr, ptr, i32, i32, i32 } { ptr @"_SM16java.lang.StringG4type", ptr null, ptr @"_SM7__constG2-55", i32 0, i32 36, i32 346901670 }
@"_SM7__constG2-57" = private unnamed_addr constant { ptr, ptr, i32, i32, [43 x i16] } { ptr @"_SM35scala.scalanative.runtime.CharArrayG4type", ptr null, i32 43, i32 2, [43 x i16] [ i16 115, i16 99, i16 97, i16 108, i16 97, i16 46, i16 115, i16 121, i16 115, i16 46, i16 112, i16 114, i16 111, i16 99, i16 101, i16 115, i16 115, i16 46, i16 80, i16 114, i16 111, i16 99, i16 101, i16 115, i16 115, i16 73, i16 109, i16 112, i16 108, i16 36, i16 83, i16 112, i16 97, i16 119, i16 110, i16 36, i16 36, i16 97, i16 110, i16 111, i16 110, i16 36, i16 49 ] }
@"_SM7__constG2-58" = private unnamed_addr constant { ptr, ptr, ptr, i32, i32, i32 } { ptr @"_SM16java.lang.StringG4type", ptr null, ptr @"_SM7__constG2-57", i32 0, i32 43, i32 271640087 }
@"_SM7__constG2-59" = private unnamed_addr constant [8 x i32] [ i32 16, i32 24, i32 40, i32 48, i32 56, i32 64, i32 104, i32 -1 ]
@"_SM7__constG2-60" = private unnamed_addr constant { ptr, ptr, i32, i32, [34 x i16] } { ptr @"_SM35scala.scalanative.runtime.CharArrayG4type", ptr null, i32 34, i32 2, [34 x i16] [ i16 115, i16 99, i16 97, i16 108, i16 97, i16 46, i16 115, i16 121, i16 115, i16 46, i16 112, i16 114, i16 111, i16 99, i16 101, i16 115, i16 115, i16 46, i16 112, i16 114, i16 111, i16 99, i16 101, i16 115, i16 115, i16 73, i16 110, i16 116, i16 101, i16 114, i16 110, i16 97, i16 108, i16 36 ] }
@"_SM7__constG2-61" = private unnamed_addr constant { ptr, ptr, ptr, i32, i32, i32 } { ptr @"_SM16java.lang.StringG4type", ptr null, ptr @"_SM7__constG2-60", i32 0, i32 34, i32 1114533024 }
@"_SM7__constG2-62" = private unnamed_addr constant { ptr, ptr, i32, i32, [58 x i16] } { ptr @"_SM35scala.scalanative.runtime.CharArrayG4type", ptr null, i32 58, i32 2, [58 x i16] [ i16 115, i16 99, i16 97, i16 108, i16 97, i16 46, i16 115, i16 121, i16 115, i16 46, i16 112, i16 114, i16 111, i16 99, i16 101, i16 115, i16 115, i16 46, i16 112, i16 114, i16 111, i16 99, i16 101, i16 115, i16 115, i16 73, i16 110, i16 116, i16 101, i16 114, i16 110, i16 97, i16 108, i16 36, i16 36, i16 97, i16 110, i16 111, i16 110, i16 102, i16 117, i16 110, i16 36, i16 111, i16 110, i16 73, i16 79, i16 73, i16 110, i16 116, i16 101, i16 114, i16 114, i16 117, i16 112, i16 116, i16 36, i16 49 ] }
@"_SM7__constG2-63" = private unnamed_addr constant { ptr, ptr, ptr, i32, i32, i32 } { ptr @"_SM16java.lang.StringG4type", ptr null, ptr @"_SM7__constG2-62", i32 0, i32 58, i32 795983414 }
@"_SM7__constG2-64" = private unnamed_addr constant { ptr, ptr, i32, i32, [1 x i16] } { ptr @"_SM35scala.scalanative.runtime.CharArrayG4type", ptr null, i32 1, i32 2, [1 x i16] [ i16 10 ] }
@"_SM7__constG2-65" = private unnamed_addr constant { ptr, ptr, ptr, i32, i32, i32 } { ptr @"_SM16java.lang.StringG4type", ptr null, ptr @"_SM7__constG2-64", i32 0, i32 1, i32 10 }
@"_SM7__constG2-66" = private unnamed_addr constant { ptr, ptr, i32, i32, [12 x i16] } { ptr @"_SM35scala.scalanative.runtime.CharArrayG4type", ptr null, i32 12, i32 2, [12 x i16] [ i16 83, i16 105, i16 109, i16 112, i16 108, i16 101, i16 45, i16 105, i16 110, i16 112, i16 117, i16 116 ] }
@"_SM7__constG2-67" = private unnamed_addr constant { ptr, ptr, ptr, i32, i32, i32 } { ptr @"_SM16java.lang.StringG4type", ptr null, ptr @"_SM7__constG2-66", i32 0, i32 12, i32 1983210511 }
@"_SM7__constG2-68" = private unnamed_addr constant { ptr, ptr, i32, i32, [13 x i16] } { ptr @"_SM35scala.scalanative.runtime.CharArrayG4type", ptr null, i32 13, i32 2, [13 x i16] [ i16 83, i16 105, i16 109, i16 112, i16 108, i16 101, i16 45, i16 111, i16 117, i16 116, i16 112, i16 117, i16 116 ] }
@"_SM7__constG2-69" = private unnamed_addr constant { ptr, ptr, ptr, i32, i32, i32 } { ptr @"_SM16java.lang.StringG4type", ptr null, ptr @"_SM7__constG2-68", i32 0, i32 13, i32 1528337756 }
@"_SM7__constG2-70" = private unnamed_addr constant { ptr, ptr, i32, i32, [12 x i16] } { ptr @"_SM35scala.scalanative.runtime.CharArrayG4type", ptr null, i32 12, i32 2, [12 x i16] [ i16 83, i16 105, i16 109, i16 112, i16 108, i16 101, i16 45, i16 101, i16 114, i16 114, i16 111, i16 114 ] }
@"_SM7__constG2-71" = private unnamed_addr constant { ptr, ptr, ptr, i32, i32, i32 } { ptr @"_SM16java.lang.StringG4type", ptr null, ptr @"_SM7__constG2-70", i32 0, i32 12, i32 1979637325 }
@"_SM7__constG2-72" = private unnamed_addr constant { ptr, ptr, i32, i32, [19 x i16] } { ptr @"_SM35scala.scalanative.runtime.CharArrayG4type", ptr null, i32 19, i32 2, [19 x i16] [ i16 105, i16 110, i16 105, i16 116, i16 105, i16 97, i16 108, i16 67, i16 97, i16 112, i16 97, i16 99, i16 105, i16 116, i16 121, i16 32, i16 60, i16 32, i16 48 ] }
@"_SM7__constG2-73" = private unnamed_addr constant { ptr, ptr, ptr, i32, i32, i32 } { ptr @"_SM16java.lang.StringG4type", ptr null, ptr @"_SM7__constG2-72", i32 0, i32 19, i32 1409777226 }
@"_SM7__constG2-74" = private unnamed_addr constant { ptr, ptr, i32, i32, [8 x i16] } { ptr @"_SM35scala.scalanative.runtime.CharArrayG4type", ptr null, i32 8, i32 2, [8 x i16] [ i16 78, i16 111, i16 110, i16 101, i16 46, i16 103, i16 101, i16 116 ] }
@"_SM7__constG2-75" = private unnamed_addr constant { ptr, ptr, ptr, i32, i32, i32 } { ptr @"_SM16java.lang.StringG4type", ptr null, ptr @"_SM7__constG2-74", i32 0, i32 8, i32 1472868288 }
@"_SM7__constG2-76" = private unnamed_addr constant { ptr, ptr, i32, i32, [7 x i16] } { ptr @"_SM35scala.scalanative.runtime.CharArrayG4type", ptr null, i32 7, i32 2, [7 x i16] [ i16 45, i16 115, i16 112, i16 97, i16 119, i16 110, i16 45 ] }
@"_SM7__constG2-77" = private unnamed_addr constant { ptr, ptr, ptr, i32, i32, i32 } { ptr @"_SM16java.lang.StringG4type", ptr null, ptr @"_SM7__constG2-76", i32 0, i32 7, i32 386786943 }
@"_SM7__constG2-78" = private unnamed_addr constant { ptr, ptr, i32, i32, [10 x i16] } { ptr @"_SM35scala.scalanative.runtime.CharArrayG4type", ptr null, i32 10, i32 2, [10 x i16] [ i16 91, i16 112, i16 114, i16 111, i16 99, i16 101, i16 115, i16 115, i16 93, i16 32 ] }
@"_SM7__constG2-79" = private unnamed_addr constant { ptr, ptr, ptr, i32, i32, i32 } { ptr @"_SM16java.lang.StringG4type", ptr null, ptr @"_SM7__constG2-78", i32 0, i32 10, i32 -1797619689 }
@"_SM7__constG2-80" = private unnamed_addr constant { ptr, ptr, i32, i32, [0 x i16] } { ptr @"_SM35scala.scalanative.runtime.CharArrayG4type", ptr null, i32 0, i32 2, [0 x i16] [  ] }
@"_SM7__constG2-81" = private unnamed_addr constant { ptr, ptr, ptr, i32, i32, i32 } { ptr @"_SM16java.lang.StringG4type", ptr null, ptr @"_SM7__constG2-80", i32 0, i32 0, i32 0 }
@"_SM7__constG2-82" = private unnamed_addr constant { ptr, ptr, i32, i32, [1 x i16] } { ptr @"_SM35scala.scalanative.runtime.CharArrayG4type", ptr null, i32 1, i32 2, [1 x i16] [ i16 32 ] }
@"_SM7__constG2-83" = private unnamed_addr constant { ptr, ptr, ptr, i32, i32, i32 } { ptr @"_SM16java.lang.StringG4type", ptr null, ptr @"_SM7__constG2-82", i32 0, i32 1, i32 32 }
@"_SM7__constG2-84" = private unnamed_addr constant { ptr, ptr, i32, i32, [19 x i16] } { ptr @"_SM35scala.scalanative.runtime.CharArrayG4type", ptr null, i32 19, i32 2, [19 x i16] [ i16 115, i16 99, i16 97, i16 108, i16 97, i16 46, i16 112, i16 114, i16 111, i16 99, i16 101, i16 115, i16 115, i16 46, i16 100, i16 101, i16 98, i16 117, i16 103 ] }
@"_SM7__constG2-85" = private unnamed_addr constant { ptr, ptr, ptr, i32, i32, i32 } { ptr @"_SM16java.lang.StringG4type", ptr null, ptr @"_SM7__constG2-84", i32 0, i32 19, i32 -761633940 }
@"_SM7__constG2-86" = private unnamed_addr constant { ptr, ptr, i32, i32, [29 x i16] } { ptr @"_SM35scala.scalanative.runtime.CharArrayG4type", ptr null, i32 29, i32 2, [29 x i16] [ i16 73, i16 110, i16 105, i16 116, i16 105, i16 97, i16 108, i16 105, i16 122, i16 105, i16 110, i16 103, i16 32, i16 112, i16 114, i16 111, i16 99, i16 101, i16 115, i16 115, i16 32, i16 112, i16 97, i16 99, i16 107, i16 97, i16 103, i16 101, i16 46 ] }
@"_SM7__constG2-87" = private unnamed_addr constant { ptr, ptr, ptr, i32, i32, i32 } { ptr @"_SM16java.lang.StringG4type", ptr null, ptr @"_SM7__constG2-86", i32 0, i32 29, i32 -1822076276 }
@"_SM19java.util.ArrayListG4type" = external global { { ptr, ptr, i32, i32, ptr }, i32, i32, ptr, [9 x ptr] }
@"_SM36scala.scalanative.runtime.CharArray$G8instance" = external global { ptr, ptr }

declare ptr @"memcpy"(ptr, ptr, i64)

declare void @"_SM31scala.collection.immutable.ListD7foreachL15scala.Function1uEO"(ptr, ptr) inlinehint
@"_SM35java.util.Collections$ImmutableListG4type" = external global { { ptr, ptr, i32, i32, ptr }, i32, i32, ptr, [3 x ptr] }
@"_SM24java.lang.ProcessBuilderG4type" = external global { { ptr, ptr, i32, i32, ptr }, i32, i32, ptr, [3 x ptr] }
@"_SM26scala.sys.SystemPropertiesG4type" = external global { { ptr, ptr, i32, i32, ptr }, i32, i32, ptr, [15 x ptr] }

declare nonnull dereferenceable(40) ptr @"_SM17java.lang.Thread$D14nextThreadNameL16java.lang.StringEO"(ptr)

declare void @"_SM16java.lang.ThreadD9interruptuEO"(ptr)

declare void @"_SM17java.util.HashMapD6putAllL13java.util.MapuEO"(ptr, ptr)

declare nonnull dereferenceable(40) ptr @"_SM31java.lang.AbstractStringBuilderD8toStringL16java.lang.StringEO"(ptr)

declare void @"_SM19java.io.PrintStreamD7printlnL16java.lang.ObjectuEO"(ptr, ptr)

declare dereferenceable_or_null(40) ptr @"_SM14scala.Console$G4load"()

declare nonnull dereferenceable(40) ptr @"_SM32scala.collection.IterableOnceOpsD8mkStringL16java.lang.StringL16java.lang.StringL16java.lang.StringL16java.lang.StringEO"(ptr, ptr, ptr, ptr)

declare void @"_SM28java.lang.ThreadLocal$ValuesD13inheritValuesL28java.lang.ThreadLocal$ValuesuEPT28java.lang.ThreadLocal$Values"(ptr, ptr)
@"_SM39scala.collection.immutable.$colon$colonG4type" = external global { { ptr, ptr, i32, i32, ptr }, i32, i32, ptr, [13 x ptr] }
@"_SM34java.lang.IllegalArgumentExceptionG4type" = external global { { ptr, ptr, i32, i32, ptr }, i32, i32, ptr, [6 x ptr] }
@"_SM36scala.scalanative.runtime.ByteArray$G8instance" = external global { ptr, ptr }
@"_SM19java.lang.ThrowableG4type" = external global { { ptr, ptr, i32, i32, ptr }, i32, i32, ptr, [5 x ptr] }

declare dereferenceable_or_null(24) ptr @"_SM36scala.scalanative.runtime.ByteArray$D5allociL35scala.scalanative.runtime.ByteArrayEO"(ptr, i32) inlinehint

declare void @"_SM16java.lang.ThreadD5startuEO"(ptr)

declare dereferenceable_or_null(16) ptr @"_SM33java.lang.process.UnixProcessGen1D15getOutputStreamL20java.io.OutputStreamEO"(ptr)
@"_SM36scala.scalanative.runtime.BoxedUnit$G8instance" = external global { ptr, ptr }

declare dereferenceable_or_null(112) ptr @"_SM28java.lang.Thread$MainThread$G4load"()

declare dereferenceable_or_null(40) ptr @"_SM16java.lang.ObjectD8getClassL15java.lang.ClassEO"(ptr) inlinehint
@"_SM30java.io.InterruptedIOExceptionG4type" = external global { { ptr, ptr, i32, i32, ptr }, i32, i32, ptr, [5 x ptr] }

declare void @"_SM16java.lang.ThreadD4joinuEO"(ptr)

declare void @"scalanative_atomic_thread_fence"(i32)

declare dereferenceable_or_null(40) ptr @"_SM44java.util.Collections$UnmodifiableCollectionD8toStringL16java.lang.StringEO"(ptr)

declare ptr @"_SM34scala.scalanative.runtime.package$D16throwNullPointernEO"(ptr) noinline

declare dereferenceable_or_null(24) ptr @"_SM18java.lang.EnvVars$G4load"()

declare dereferenceable_or_null(24) ptr @"_SM14scala.package$D14Nil$lzycomputeL31scala.collection.immutable.Nil$EPT14scala.package$"(ptr)

declare dereferenceable_or_null(16) ptr @"_SM36scala.collection.immutable.ArraySeq$D15unsafeWrapArrayL16java.lang.ObjectL35scala.collection.immutable.ArraySeqEO"(ptr, ptr)

declare dereferenceable_or_null(40) ptr @"_SM18java.lang.Streams$G4load"()

declare dereferenceable_or_null(64) ptr @"_SM16java.lang.ThreadD14getThreadGroupL21java.lang.ThreadGroupEO"(ptr)

declare dereferenceable_or_null(24) ptr @"_SM36scala.scalanative.runtime.CharArray$D5allociL35scala.scalanative.runtime.CharArrayEO"(ptr, i32) inlinehint
@"_SM30java.util.AbstractList$$anon$1G4type" = external global { { ptr, ptr, i32, i32, ptr }, i32, i32, ptr, [9 x ptr] }

declare dereferenceable_or_null(40) ptr @"_SM36scala.collection.immutable.ArraySeq$G4load"()

declare dereferenceable_or_null(72) ptr @"_SM24java.lang.ProcessBuilderD13redirectInputL33java.lang.ProcessBuilder$RedirectL24java.lang.ProcessBuilderEO"(ptr, ptr)

declare ptr @"_SM34scala.scalanative.runtime.package$D16throwOutOfBoundsiinEO"(ptr, i32, i32)
@"_SM35scala.scalanative.runtime.CharArrayG4type" = external global { { ptr, ptr, i32, i32, ptr }, i32, i32, ptr, [7 x ptr] }

declare ptr @"__scalanative_loadModule"(ptr, ptr, i64, ptr)

declare dereferenceable_or_null(24) ptr @"_SM27scala.runtime.ScalaRunTime$D12wrapRefArrayLAL16java.lang.Object_L35scala.collection.immutable.ArraySeqEO"(ptr, ptr)

declare dereferenceable_or_null(32) ptr @"_SM34java.lang.ProcessBuilder$Redirect$G4load"()

declare void @"_SM33scala.scalanative.runtime.packageD12enterMonitorL16java.lang.ObjectuEo"(ptr) inlinehint
@"_SM16scala.MatchErrorG4type" = external global { { ptr, ptr, i32, i32, ptr }, i32, i32, ptr, [6 x ptr] }
@"_SM23java.lang.StringBuilderG4type" = external global { { ptr, ptr, i32, i32, ptr }, i32, i32, ptr, [3 x ptr] }

declare dereferenceable_or_null(48) ptr @"_SM19java.lang.ThrowableD16fillInStackTraceL19java.lang.ThrowableEO"(ptr)

declare dereferenceable_or_null(16) ptr @"_SM21java.lang.ThreadLocalD3getL16java.lang.ObjectEO"(ptr)

declare dereferenceable_or_null(16) ptr @"_SM23scala.reflect.ClassTag$D5applyL15java.lang.ClassL22scala.reflect.ClassTagEO"(ptr, ptr)

declare dereferenceable_or_null(136) ptr @"_SM23scala.reflect.ClassTag$G4load"()
@"scalanative_GC_yieldpoint_trap" = external global ptr

declare dereferenceable_or_null(16) ptr @"_SM33java.lang.process.UnixProcessGen2D15getOutputStreamL20java.io.OutputStreamEO"(ptr)

declare dereferenceable_or_null(32) ptr @"_SM14scala.package$D15List$lzycomputeL32scala.collection.immutable.List$EPT14scala.package$"(ptr)
@"_SM17java.util.HashMapG4type" = external global { { ptr, ptr, i32, i32, ptr }, i32, i32, ptr, [3 x ptr] }
@"_SM32java.util.NoSuchElementExceptionG4type" = external global { { ptr, ptr, i32, i32, ptr }, i32, i32, ptr, [6 x ptr] }

declare i1 @"_SM16java.lang.ObjectD6equalsL16java.lang.ObjectzEO"(ptr, ptr) inlinehint
@"_SM28java.lang.ThreadLocal$ValuesG4type" = external global { { ptr, ptr, i32, i32, ptr }, i32, i32, ptr, [3 x ptr] }
@"_SM17java.util.Arrays$G8instance" = external global { ptr, ptr }

declare nonnull dereferenceable(40) ptr @"_SM28java.util.AbstractCollectionD8toStringL16java.lang.StringEO"(ptr)
@"_SM16java.lang.StringG4type" = external global { { ptr, ptr, i32, i32, ptr }, i32, i32, ptr, [3 x ptr] }

declare void @"_SM31java.lang.AbstractStringBuilderD7append0L16java.lang.StringuEO"(ptr, ptr)
@"_SM19java.io.PrintStreamG4type" = external global { { ptr, ptr, i32, i32, ptr }, i32, i32, ptr, [7 x ptr] }

declare i32 @"_SM16java.lang.ObjectD8hashCodeiEO"(ptr) inlinehint

declare dereferenceable_or_null(16) ptr @"_SM24java.lang.ProcessBuilderD5startL17java.lang.ProcessEO"(ptr)

declare nonnull dereferenceable(32) ptr @"_SM24java.lang.ProcessBuilderD16defaultDirectoryL12java.io.FileEPT24java.lang.ProcessBuilder"(ptr)

declare dereferenceable_or_null(24) ptr @"_SM38scala.scalanative.runtime.ObjectArray$D5allociL37scala.scalanative.runtime.ObjectArrayEO"(ptr, i32) inlinehint

declare ptr @"scalanative_GC_alloc_array"(ptr, i32, i32)

declare i32 @"scalanative_atomic_memory_order_release"()

declare ptr @"_SM34scala.scalanative.runtime.package$D14throwClassCastR_R_nEO"(ptr, ptr, ptr) noinline

declare ptr @"scalanative_throw"(ptr)
@"__modules" = external global [324 x ptr]

declare dereferenceable_or_null(16) ptr @"_SM33java.lang.process.UnixProcessGen1D14getInputStreamL19java.io.InputStreamEO"(ptr)

declare dereferenceable_or_null(24) ptr @"_SM31scala.collection.immutable.Nil$G4load"()
@"_SM30java.util.AbstractList$$anon$3G4type" = external global { { ptr, ptr, i32, i32, ptr }, i32, i32, ptr, [9 x ptr] }

declare nonnull dereferenceable(24) ptr @"_SM17java.util.Arrays$D6asListLAL16java.lang.Object_L14java.util.ListEO"(ptr, ptr) noinline
@"_SM23java.lang.VirtualThreadG4type" = external global { { ptr, ptr, i32, i32, ptr }, i32, i32, ptr, [4 x ptr] }
@"_SM11scala.None$G8instance" = external global { ptr, ptr }
@"_SM33java.lang.process.UnixProcessGen1G4type" = external global { { ptr, ptr, i32, i32, ptr }, i32, i32, ptr, [6 x ptr] }
@"_SM29java.util.Collections$$anon$2G4type" = external global { { ptr, ptr, i32, i32, ptr }, i32, i32, ptr, [9 x ptr] }

declare i64 @"scalanative_atomic_fetch_add_llong"(ptr, i64)
@"_SM15java.lang.ClassG4type" = external global { { ptr, ptr, i32, i32, ptr }, i32, i32, ptr, [3 x ptr] }

declare nonnull dereferenceable(40) ptr @"_SM37scala.runtime.AbstractPartialFunctionD8toStringL16java.lang.StringEO"(ptr)
@"_SM27scala.runtime.ScalaRunTime$G8instance" = external global { ptr, ptr }

declare dereferenceable_or_null(24) ptr @"_SM35java.lang.Thread$ThreadIdentifiers$G4load"()
@"_SM11scala.None$G4type" = external global { { ptr, ptr, i32, i32, ptr }, i32, i32, ptr, [4 x ptr] }

declare dereferenceable_or_null(104) ptr @"scalanative_currentThread"()
@"_SM38scala.scalanative.runtime.ObjectArray$G8instance" = external global { ptr, ptr }

declare dereferenceable_or_null(16) ptr @"_SM33java.lang.process.UnixProcessGen2D14getErrorStreamL19java.io.InputStreamEO"(ptr)

declare dereferenceable_or_null(16) ptr @"_SM17java.util.HashMapD3putL16java.lang.ObjectL16java.lang.ObjectL16java.lang.ObjectEO"(ptr, ptr, ptr)
@"_SM31java.lang.PlatformThreadContextG4type" = external global { { ptr, ptr, i32, i32, ptr }, i32, i32, ptr, [3 x ptr] }

declare void @"_SM33scala.scalanative.runtime.packageD11exitMonitorL16java.lang.ObjectuEo"(ptr) inlinehint

declare nonnull dereferenceable(40) ptr @"_SM16java.lang.ObjectD8toStringL16java.lang.StringEO"(ptr) inlinehint

declare void @"_SM16java.lang.ThreadD7setNameL16java.lang.StringuEO"(ptr, ptr)

declare dereferenceable_or_null(16) ptr @"_SM33java.lang.process.UnixProcessGen1D14getErrorStreamL19java.io.InputStreamEO"(ptr)

declare void @"_SM16java.lang.ThreadD9setDaemonzuEO"(ptr, i1)
@"_SM24java.util.Arrays$$anon$2G4type" = external global { { ptr, ptr, i32, i32, ptr }, i32, i32, ptr, [9 x ptr] }

declare i32 @"llvm.ctlz.i32"(i32, i1)

declare void @"_SM24java.lang.ProcessBuilderD20$anonfun$directory$1L12java.io.FileuEPT24java.lang.ProcessBuilder"(ptr, ptr)

declare dereferenceable_or_null(16) ptr @"_SM31scala.collection.immutable.ListD12prependedAllL29scala.collection.IterableOnceL31scala.collection.immutable.ListEO"(ptr, ptr)

declare dereferenceable_or_null(24) ptr @"_SM17java.lang.Thread$G4load"()

declare i1 @"_SM26scala.sys.SystemPropertiesD8containsL16java.lang.StringzEO"(ptr, ptr)
@"_SM37scala.scalanative.runtime.ObjectArrayG4type" = external global { { ptr, ptr, i32, i32, ptr }, i32, i32, ptr, [7 x ptr] }

declare dereferenceable_or_null(72) ptr @"_SM14scala.package$G4load"()
@"_SM22__scalanative_metadataG14dispatch_table" = external constant [33723 x ptr]

declare ptr @"scalanative_GC_alloc_small"(ptr, i64)

declare nonnull dereferenceable(40) ptr @"_SM16java.lang.ThreadD8toStringL16java.lang.StringEO"(ptr)

declare dereferenceable_or_null(16) ptr @"_SM33java.lang.process.UnixProcessGen2D14getInputStreamL19java.io.InputStreamEO"(ptr)

declare dereferenceable_or_null(48) ptr @"_SM41java.lang.ThreadLocal$Values$Unsupported$G4load"()
@"_SM26scala.sys.process.BasicIO$G4type" = hidden global { { ptr, ptr, i32, i32, ptr }, i32, i32, ptr, [3 x ptr] } { { ptr, ptr, i32, i32, ptr } { ptr @"_SM15java.lang.ClassG4type", ptr null, i32 96, i32 -1, ptr @"_SM7__constG1-1" }, i32 40, i32 96, ptr @"_SM7__constG1-2", [3 x ptr] [ ptr @"_SM16java.lang.ObjectD8hashCodeiEO", ptr @"_SM16java.lang.ObjectD8toStringL16java.lang.StringEO", ptr @"_SM16java.lang.ObjectD6equalsL16java.lang.ObjectzEO" ] }
@"_SM37scala.sys.process.BasicIO$$$Lambda$11G4type" = hidden global { { ptr, ptr, i32, i32, ptr }, i32, i32, ptr, [3 x ptr] } { { ptr, ptr, i32, i32, ptr } { ptr @"_SM15java.lang.ClassG4type", ptr null, i32 709, i32 384, ptr @"_SM7__constG1-4" }, i32 24, i32 709, ptr @"_SM7__constG1-5", [3 x ptr] [ ptr @"_SM16java.lang.ObjectD8hashCodeiEO", ptr @"_SM16java.lang.ObjectD8toStringL16java.lang.StringEO", ptr @"_SM16java.lang.ObjectD6equalsL16java.lang.ObjectzEO" ] }
@"_SM37scala.sys.process.BasicIO$$$Lambda$12G4type" = hidden global { { ptr, ptr, i32, i32, ptr }, i32, i32, ptr, [3 x ptr] } { { ptr, ptr, i32, i32, ptr } { ptr @"_SM15java.lang.ClassG4type", ptr null, i32 476, i32 267, ptr @"_SM7__constG1-7" }, i32 24, i32 476, ptr @"_SM7__constG1-5", [3 x ptr] [ ptr @"_SM16java.lang.ObjectD8hashCodeiEO", ptr @"_SM16java.lang.ObjectD8toStringL16java.lang.StringEO", ptr @"_SM16java.lang.ObjectD6equalsL16java.lang.ObjectzEO" ] }
@"_SM36scala.sys.process.BasicIO$$$Lambda$4G4type" = hidden global { { ptr, ptr, i32, i32, ptr }, i32, i32, ptr, [3 x ptr] } { { ptr, ptr, i32, i32, ptr } { ptr @"_SM15java.lang.ClassG4type", ptr null, i32 94, i32 31, ptr @"_SM7__constG1-9" }, i32 24, i32 94, ptr @"_SM7__constG1-5", [3 x ptr] [ ptr @"_SM16java.lang.ObjectD8hashCodeiEO", ptr @"_SM16java.lang.ObjectD8toStringL16java.lang.StringEO", ptr @"_SM16java.lang.ObjectD6equalsL16java.lang.ObjectzEO" ] }
@"_SM36scala.sys.process.BasicIO$$$Lambda$5G4type" = hidden global { { ptr, ptr, i32, i32, ptr }, i32, i32, ptr, [3 x ptr] } { { ptr, ptr, i32, i32, ptr } { ptr @"_SM15java.lang.ClassG4type", ptr null, i32 214, i32 92, ptr @"_SM7__constG2-11" }, i32 24, i32 214, ptr @"_SM7__constG1-5", [3 x ptr] [ ptr @"_SM16java.lang.ObjectD8hashCodeiEO", ptr @"_SM16java.lang.ObjectD8toStringL16java.lang.StringEO", ptr @"_SM16java.lang.ObjectD6equalsL16java.lang.ObjectzEO" ] }
@"_SM36scala.sys.process.BasicIO$$$Lambda$6G4type" = hidden global { { ptr, ptr, i32, i32, ptr }, i32, i32, ptr, [3 x ptr] } { { ptr, ptr, i32, i32, ptr } { ptr @"_SM15java.lang.ClassG4type", ptr null, i32 649, i32 360, ptr @"_SM7__constG2-13" }, i32 24, i32 649, ptr @"_SM7__constG1-5", [3 x ptr] [ ptr @"_SM16java.lang.ObjectD8hashCodeiEO", ptr @"_SM16java.lang.ObjectD8toStringL16java.lang.StringEO", ptr @"_SM16java.lang.ObjectD6equalsL16java.lang.ObjectzEO" ] }
@"_SM25scala.sys.process.ProcessG4type" = hidden global { ptr, ptr, i32, i32, ptr } { ptr @"_SM15java.lang.ClassG4type", ptr null, i32 -74, i32 -1, ptr @"_SM7__constG2-15" }
@"_SM26scala.sys.process.Process$G4type" = hidden global { { ptr, ptr, i32, i32, ptr }, i32, i32, ptr, [3 x ptr] } { { ptr, ptr, i32, i32, ptr } { ptr @"_SM15java.lang.ClassG4type", ptr null, i32 1199, i32 -1, ptr @"_SM7__constG2-17" }, i32 24, i32 1199, ptr @"_SM7__constG1-5", [3 x ptr] [ ptr @"_SM16java.lang.ObjectD8hashCodeiEO", ptr @"_SM16java.lang.ObjectD8toStringL16java.lang.StringEO", ptr @"_SM16java.lang.ObjectD6equalsL16java.lang.ObjectzEO" ] }
@"_SM32scala.sys.process.ProcessBuilderG4type" = hidden global { ptr, ptr, i32, i32, ptr } { ptr @"_SM15java.lang.ClassG4type", ptr null, i32 -141, i32 -1, ptr @"_SM7__constG2-19" }
@"_SM33scala.sys.process.ProcessBuilder$G4type" = hidden global { { ptr, ptr, i32, i32, ptr }, i32, i32, ptr, [3 x ptr] } { { ptr, ptr, i32, i32, ptr } { ptr @"_SM15java.lang.ClassG4type", ptr null, i32 24, i32 -1, ptr @"_SM7__constG2-21" }, i32 16, i32 24, ptr @"_SM7__constG2-22", [3 x ptr] [ ptr @"_SM16java.lang.ObjectD8hashCodeiEO", ptr @"_SM16java.lang.ObjectD8toStringL16java.lang.StringEO", ptr @"_SM16java.lang.ObjectD6equalsL16java.lang.ObjectzEO" ] }
@"_SM33scala.sys.process.ProcessBuilder$G8instance" = hidden global { ptr, ptr } { ptr @"_SM33scala.sys.process.ProcessBuilder$G4type", ptr null }
@"_SM37scala.sys.process.ProcessBuilder$SinkG4type" = hidden global { ptr, ptr, i32, i32, ptr } { ptr @"_SM15java.lang.ClassG4type", ptr null, i32 -194, i32 -1, ptr @"_SM7__constG2-24" }
@"_SM39scala.sys.process.ProcessBuilder$SourceG4type" = hidden global { ptr, ptr, i32, i32, ptr } { ptr @"_SM15java.lang.ClassG4type", ptr null, i32 -212, i32 -1, ptr @"_SM7__constG2-26" }
@"_SM36scala.sys.process.ProcessBuilderImplG4type" = hidden global { ptr, ptr, i32, i32, ptr } { ptr @"_SM15java.lang.ClassG4type", ptr null, i32 -184, i32 -1, ptr @"_SM7__constG2-28" }
@"_SM52scala.sys.process.ProcessBuilderImpl$AbstractBuilderG4type" = hidden global { { ptr, ptr, i32, i32, ptr }, i32, i32, ptr, [3 x ptr] } { { ptr, ptr, i32, i32, ptr } { ptr @"_SM15java.lang.ClassG4type", ptr null, i32 98, i32 -1, ptr @"_SM7__constG2-30" }, i32 32, i32 99, ptr @"_SM7__constG1-5", [3 x ptr] [ ptr @"_SM16java.lang.ObjectD8hashCodeiEO", ptr @"_SM16java.lang.ObjectD8toStringL16java.lang.StringEO", ptr @"_SM16java.lang.ObjectD6equalsL16java.lang.ObjectzEO" ] }
@"_SM43scala.sys.process.ProcessBuilderImpl$SimpleG4type" = hidden global { { ptr, ptr, i32, i32, ptr }, i32, i32, ptr, [3 x ptr] } { { ptr, ptr, i32, i32, ptr } { ptr @"_SM15java.lang.ClassG4type", ptr null, i32 99, i32 -1, ptr @"_SM7__constG2-32" }, i32 40, i32 99, ptr @"_SM7__constG2-33", [3 x ptr] [ ptr @"_SM16java.lang.ObjectD8hashCodeiEO", ptr @"_SM43scala.sys.process.ProcessBuilderImpl$SimpleD8toStringL16java.lang.StringEO", ptr @"_SM16java.lang.ObjectD6equalsL16java.lang.ObjectzEO" ] }
@"_SM53scala.sys.process.ProcessBuilderImpl$Simple$$Lambda$1G4type" = hidden global { { ptr, ptr, i32, i32, ptr }, i32, i32, ptr, [3 x ptr] } { { ptr, ptr, i32, i32, ptr } { ptr @"_SM15java.lang.ClassG4type", ptr null, i32 665, i32 366, ptr @"_SM7__constG2-35" }, i32 40, i32 665, ptr @"_SM7__constG1-2", [3 x ptr] [ ptr @"_SM16java.lang.ObjectD8hashCodeiEO", ptr @"_SM16java.lang.ObjectD8toStringL16java.lang.StringEO", ptr @"_SM16java.lang.ObjectD6equalsL16java.lang.ObjectzEO" ] }
@"_SM53scala.sys.process.ProcessBuilderImpl$Simple$$Lambda$2G4type" = hidden global { { ptr, ptr, i32, i32, ptr }, i32, i32, ptr, [3 x ptr] } { { ptr, ptr, i32, i32, ptr } { ptr @"_SM15java.lang.ClassG4type", ptr null, i32 1186, i32 560, ptr @"_SM7__constG2-37" }, i32 40, i32 1186, ptr @"_SM7__constG1-2", [3 x ptr] [ ptr @"_SM16java.lang.ObjectD8hashCodeiEO", ptr @"_SM16java.lang.ObjectD8toStringL16java.lang.StringEO", ptr @"_SM16java.lang.ObjectD6equalsL16java.lang.ObjectzEO" ] }
@"_SM53scala.sys.process.ProcessBuilderImpl$Simple$$Lambda$3G4type" = hidden global { { ptr, ptr, i32, i32, ptr }, i32, i32, ptr, [3 x ptr] } { { ptr, ptr, i32, i32, ptr } { ptr @"_SM15java.lang.ClassG4type", ptr null, i32 165, i32 66, ptr @"_SM7__constG2-39" }, i32 40, i32 165, ptr @"_SM7__constG1-2", [3 x ptr] [ ptr @"_SM16java.lang.ObjectD8hashCodeiEO", ptr @"_SM16java.lang.ObjectD8toStringL16java.lang.StringEO", ptr @"_SM16java.lang.ObjectD6equalsL16java.lang.ObjectzEO" ] }
@"_SM33scala.sys.process.ProcessCreationG4type" = hidden global { ptr, ptr, i32, i32, ptr } { ptr @"_SM15java.lang.ClassG4type", ptr null, i32 -158, i32 -1, ptr @"_SM7__constG2-41" }
@"_SM43scala.sys.process.ProcessCreation$$Lambda$2G4type" = hidden global { { ptr, ptr, i32, i32, ptr }, i32, i32, ptr, [3 x ptr] } { { ptr, ptr, i32, i32, ptr } { ptr @"_SM15java.lang.ClassG4type", ptr null, i32 479, i32 269, ptr @"_SM7__constG2-43" }, i32 32, i32 479, ptr @"_SM7__constG2-44", [3 x ptr] [ ptr @"_SM16java.lang.ObjectD8hashCodeiEO", ptr @"_SM16java.lang.ObjectD8toStringL16java.lang.StringEO", ptr @"_SM16java.lang.ObjectD6equalsL16java.lang.ObjectzEO" ] }
@"_SM27scala.sys.process.ProcessIOG4type" = hidden global { { ptr, ptr, i32, i32, ptr }, i32, i32, ptr, [3 x ptr] } { { ptr, ptr, i32, i32, ptr } { ptr @"_SM15java.lang.ClassG4type", ptr null, i32 74, i32 -1, ptr @"_SM7__constG2-46" }, i32 48, i32 74, ptr @"_SM7__constG2-47", [3 x ptr] [ ptr @"_SM16java.lang.ObjectD8hashCodeiEO", ptr @"_SM16java.lang.ObjectD8toStringL16java.lang.StringEO", ptr @"_SM16java.lang.ObjectD6equalsL16java.lang.ObjectzEO" ] }
@"_SM29scala.sys.process.ProcessImplG4type" = hidden global { ptr, ptr, i32, i32, ptr } { ptr @"_SM15java.lang.ClassG4type", ptr null, i32 -113, i32 -1, ptr @"_SM7__constG2-49" }
@"_SM43scala.sys.process.ProcessImpl$SimpleProcessG4type" = hidden global { { ptr, ptr, i32, i32, ptr }, i32, i32, ptr, [3 x ptr] } { { ptr, ptr, i32, i32, ptr } { ptr @"_SM15java.lang.ClassG4type", ptr null, i32 1184, i32 -1, ptr @"_SM7__constG2-51" }, i32 48, i32 1184, ptr @"_SM7__constG2-52", [3 x ptr] [ ptr @"_SM16java.lang.ObjectD8hashCodeiEO", ptr @"_SM16java.lang.ObjectD8toStringL16java.lang.StringEO", ptr @"_SM16java.lang.ObjectD6equalsL16java.lang.ObjectzEO" ] }
@"_SM53scala.sys.process.ProcessImpl$SimpleProcess$$Lambda$1G4type" = hidden global { { ptr, ptr, i32, i32, ptr }, i32, i32, ptr, [3 x ptr] } { { ptr, ptr, i32, i32, ptr } { ptr @"_SM15java.lang.ClassG4type", ptr null, i32 241, i32 107, ptr @"_SM7__constG2-54" }, i32 24, i32 241, ptr @"_SM7__constG1-5", [3 x ptr] [ ptr @"_SM16java.lang.ObjectD8hashCodeiEO", ptr @"_SM16java.lang.ObjectD8toStringL16java.lang.StringEO", ptr @"_SM16java.lang.ObjectD6equalsL16java.lang.ObjectzEO" ] }
@"_SM36scala.sys.process.ProcessImpl$Spawn$G4type" = hidden global { { ptr, ptr, i32, i32, ptr }, i32, i32, ptr, [3 x ptr] } { { ptr, ptr, i32, i32, ptr } { ptr @"_SM15java.lang.ClassG4type", ptr null, i32 856, i32 -1, ptr @"_SM7__constG2-56" }, i32 16, i32 856, ptr @"_SM7__constG2-22", [3 x ptr] [ ptr @"_SM16java.lang.ObjectD8hashCodeiEO", ptr @"_SM16java.lang.ObjectD8toStringL16java.lang.StringEO", ptr @"_SM16java.lang.ObjectD6equalsL16java.lang.ObjectzEO" ] }
@"_SM43scala.sys.process.ProcessImpl$Spawn$$anon$1G4type" = hidden global { { ptr, ptr, i32, i32, ptr }, i32, i32, ptr, [4 x ptr] } { { ptr, ptr, i32, i32, ptr } { ptr @"_SM15java.lang.ClassG4type", ptr null, i32 218, i32 95, ptr @"_SM7__constG2-58" }, i32 112, i32 218, ptr @"_SM7__constG2-59", [4 x ptr] [ ptr @"_SM16java.lang.ObjectD8hashCodeiEO", ptr @"_SM16java.lang.ThreadD8toStringL16java.lang.StringEO", ptr @"_SM16java.lang.ObjectD6equalsL16java.lang.ObjectzEO", ptr @"_SM43scala.sys.process.ProcessImpl$Spawn$$anon$1D3runuEO" ] }
@"_SM34scala.sys.process.processInternal$G4type" = hidden global { { ptr, ptr, i32, i32, ptr }, i32, i32, ptr, [3 x ptr] } { { ptr, ptr, i32, i32, ptr } { ptr @"_SM15java.lang.ClassG4type", ptr null, i32 488, i32 -1, ptr @"_SM7__constG2-61" }, i32 24, i32 488, ptr @"_SM7__constG2-22", [3 x ptr] [ ptr @"_SM16java.lang.ObjectD8hashCodeiEO", ptr @"_SM16java.lang.ObjectD8toStringL16java.lang.StringEO", ptr @"_SM16java.lang.ObjectD6equalsL16java.lang.ObjectzEO" ] }
@"_SM58scala.sys.process.processInternal$$anonfun$onIOInterrupt$1G4type" = hidden global { { ptr, ptr, i32, i32, ptr }, i32, i32, ptr, [4 x ptr] } { { ptr, ptr, i32, i32, ptr } { ptr @"_SM15java.lang.ClassG4type", ptr null, i32 308, i32 146, ptr @"_SM7__constG2-63" }, i32 24, i32 308, ptr @"_SM7__constG1-5", [4 x ptr] [ ptr @"_SM16java.lang.ObjectD8hashCodeiEO", ptr @"_SM37scala.runtime.AbstractPartialFunctionD8toStringL16java.lang.StringEO", ptr @"_SM16java.lang.ObjectD6equalsL16java.lang.ObjectzEO", ptr @"_SM58scala.sys.process.processInternal$$anonfun$onIOInterrupt$1D11applyOrElseL16java.lang.ObjectL15scala.Function1L16java.lang.ObjectEO" ] }

define void @"_SM26scala.sys.process.BasicIO$D13transferFullyL19java.io.InputStreamL20java.io.OutputStreamuEO"(ptr %_1, ptr %_2, ptr %_3) personality ptr @__gxx_personality_v0 {
_4.0:
  br label %_7.0
_7.0:
  %_38 = icmp ne ptr %_1, null
  br i1 %_38, label %_35.0, label %_36.0
_35.0:
  invoke void @"_SM26scala.sys.process.BasicIO$D17transferFullyImplL19java.io.InputStreamL20java.io.OutputStreamuEPT26scala.sys.process.BasicIO$"(ptr dereferenceable_or_null(40) %_1, ptr dereferenceable_or_null(16) %_2, ptr dereferenceable_or_null(16) %_3) to label %_35.1 unwind label %_42.landingpad
_35.1:
  br label %_8.0
_5.0:
  %_9 = phi ptr [%_13, %_40.0], [%_11, %_34.0]
  %_47 = icmp eq ptr %_9, null
  br i1 %_47, label %_44.0, label %_45.0
_44.0:
  br label %_46.0
_45.0:
  %_48 = load ptr, ptr %_9
  %_49 = getelementptr { ptr, ptr, i32, i32, ptr }, { ptr, ptr, i32, i32, ptr }* %_48, i32 0, i32 2
  %_50 = load i32, ptr %_49
  %_51 = icmp sle i32 1093, %_50
  %_52 = icmp sle i32 %_50, 1168
  %_53 = and i1 %_51, %_52
  br label %_46.0
_46.0:
  %_15 = phi i1 [%_53, %_45.0], [false, %_44.0]
  br i1 %_15, label %_16.0, label %_17.0
_16.0:
  %_57 = icmp eq ptr %_9, null
  br i1 %_57, label %_55.0, label %_54.0
_54.0:
  %_58 = load ptr, ptr %_9
  %_59 = getelementptr { ptr, ptr, i32, i32, ptr }, { ptr, ptr, i32, i32, ptr }* %_58, i32 0, i32 2
  %_60 = load i32, ptr %_59
  %_61 = icmp sle i32 1093, %_60
  %_62 = icmp sle i32 %_60, 1168
  %_63 = and i1 %_61, %_62
  br i1 %_63, label %_55.0, label %_56.0
_55.0:
  %_21 = call dereferenceable_or_null(24) ptr @"_SM34scala.sys.process.processInternal$G4load"()
  %_22 = call dereferenceable_or_null(24) ptr @"scalanative_GC_alloc_small"(ptr @"_SM36scala.sys.process.BasicIO$$$Lambda$6G4type", i64 24)
  call void @"_SM36scala.sys.process.BasicIO$$$Lambda$6RL26scala.sys.process.BasicIO$E"(ptr nonnull dereferenceable(24) %_22, ptr dereferenceable_or_null(40) %_1)
  %_25 = call dereferenceable_or_null(16) ptr @"_SM34scala.sys.process.processInternal$D13onIOInterruptL15scala.Function0L21scala.PartialFunctionEO"(ptr nonnull dereferenceable(24) %_21, ptr nonnull dereferenceable(24) %_22)
  %_67 = icmp ne ptr %_25, null
  br i1 %_67, label %_65.0, label %_66.0
_65.0:
  %_68 = load ptr, ptr %_25
  %_69 = getelementptr { ptr, ptr, i32, i32, ptr }, { ptr, ptr, i32, i32, ptr }* %_68, i32 0, i32 3
  %_70 = load i32, ptr %_69
  %_71 = getelementptr ptr, ptr @"_SM22__scalanative_metadataG14dispatch_table", i32 8825
  %_72 = getelementptr ptr, ptr %_71, i32 %_70
  %_30 = load ptr, ptr %_72
  %_31 = call i1 %_30(ptr dereferenceable_or_null(16) %_25, ptr dereferenceable_or_null(48) %_9)
  br i1 %_31, label %_26.0, label %_27.0
_26.0:
  %_73 = load ptr, ptr %_25
  %_74 = getelementptr { ptr, ptr, i32, i32, ptr }, { ptr, ptr, i32, i32, ptr }* %_73, i32 0, i32 3
  %_75 = load i32, ptr %_74
  %_76 = getelementptr ptr, ptr @"_SM22__scalanative_metadataG14dispatch_table", i32 1812
  %_77 = getelementptr ptr, ptr %_76, i32 %_75
  %_32 = load ptr, ptr %_77
  %_33 = call dereferenceable_or_null(16) ptr %_32(ptr dereferenceable_or_null(16) %_25, ptr dereferenceable_or_null(48) %_9)
  br label %_28.0
_27.0:
  %_79 = icmp ne ptr %_9, null
  br i1 %_79, label %_78.0, label %_66.0
_78.0:
  call ptr @"scalanative_throw"(ptr dereferenceable_or_null(48) %_9)
  unreachable
_28.0:
  br label %_8.0
_17.0:
  %_82 = icmp ne ptr %_9, null
  br i1 %_82, label %_81.0, label %_66.0
_81.0:
  call ptr @"scalanative_throw"(ptr dereferenceable_or_null(16) %_9)
  unreachable
_8.0:
  %_123 = load ptr, ptr @scalanative_GC_yieldpoint_trap
  %_124 = load volatile ptr, ptr %_123
  ret void
_36.0:
  invoke ptr @"_SM34scala.scalanative.runtime.package$D16throwNullPointernEO"(ptr null) to label %_36.1 unwind label %_85.landingpad
_36.1:
  unreachable
_66.0:
  call ptr @"_SM34scala.scalanative.runtime.package$D16throwNullPointernEO"(ptr null)
  unreachable
_56.0:
  %_88 = phi ptr [%_9, %_54.0]
  %_89 = phi ptr [@"_SM19java.lang.ThrowableG4type", %_54.0]
  %_90 = load ptr, ptr %_88
  call ptr @"_SM34scala.scalanative.runtime.package$D14throwClassCastR_R_nEO"(ptr null, ptr %_90, ptr %_89)
  unreachable
_34.0:
  %_11 = phi ptr [%_37, %_37.landingpad.succ], [%_85, %_85.landingpad.succ], [%_39, %_39.landingpad.succ]
  br label %_5.0
_40.0:
  %_13 = phi ptr [%_42, %_42.landingpad.succ]
  br label %_5.0
_37.landingpad:
  %_126 = landingpad { ptr, i32 } catch ptr @_ZTIN11scalanative16ExceptionWrapperE
  %_127 = extractvalue { ptr, i32 } %_126, 0
  %_128 = extractvalue { ptr, i32 } %_126, 1
  %_129 = call i32 @llvm.eh.typeid.for(ptr @_ZTIN11scalanative16ExceptionWrapperE)
  %_130 = icmp eq i32 %_128, %_129
  br i1 %_130, label %_37.landingpad.succ, label %_37.landingpad.fail
_37.landingpad.succ:
  %_131 = call ptr @__cxa_begin_catch(ptr %_127)
  %_133 = getelementptr ptr, ptr %_131, i32 1
  %_37 = load ptr, ptr %_133
  call void @__cxa_end_catch()br label %_34.0
_37.landingpad.fail:
  resume { ptr, i32 } %_126
_39.landingpad:
  %_134 = landingpad { ptr, i32 } catch ptr @_ZTIN11scalanative16ExceptionWrapperE
  %_135 = extractvalue { ptr, i32 } %_134, 0
  %_136 = extractvalue { ptr, i32 } %_134, 1
  %_137 = call i32 @llvm.eh.typeid.for(ptr @_ZTIN11scalanative16ExceptionWrapperE)
  %_138 = icmp eq i32 %_136, %_137
  br i1 %_138, label %_39.landingpad.succ, label %_39.landingpad.fail
_39.landingpad.succ:
  %_139 = call ptr @__cxa_begin_catch(ptr %_135)
  %_141 = getelementptr ptr, ptr %_139, i32 1
  %_39 = load ptr, ptr %_141
  call void @__cxa_end_catch()br label %_34.0
_39.landingpad.fail:
  resume { ptr, i32 } %_134
_42.landingpad:
  %_142 = landingpad { ptr, i32 } catch ptr @_ZTIN11scalanative16ExceptionWrapperE
  %_143 = extractvalue { ptr, i32 } %_142, 0
  %_144 = extractvalue { ptr, i32 } %_142, 1
  %_145 = call i32 @llvm.eh.typeid.for(ptr @_ZTIN11scalanative16ExceptionWrapperE)
  %_146 = icmp eq i32 %_144, %_145
  br i1 %_146, label %_42.landingpad.succ, label %_42.landingpad.fail
_42.landingpad.succ:
  %_147 = call ptr @__cxa_begin_catch(ptr %_143)
  %_149 = getelementptr ptr, ptr %_147, i32 1
  %_42 = load ptr, ptr %_149
  call void @__cxa_end_catch()br label %_40.0
_42.landingpad.fail:
  resume { ptr, i32 } %_142
_85.landingpad:
  %_150 = landingpad { ptr, i32 } catch ptr @_ZTIN11scalanative16ExceptionWrapperE
  %_151 = extractvalue { ptr, i32 } %_150, 0
  %_152 = extractvalue { ptr, i32 } %_150, 1
  %_153 = call i32 @llvm.eh.typeid.for(ptr @_ZTIN11scalanative16ExceptionWrapperE)
  %_154 = icmp eq i32 %_152, %_153
  br i1 %_154, label %_85.landingpad.succ, label %_85.landingpad.fail
_85.landingpad.succ:
  %_155 = call ptr @__cxa_begin_catch(ptr %_151)
  %_157 = getelementptr ptr, ptr %_155, i32 1
  %_85 = load ptr, ptr %_157
  call void @__cxa_end_catch()br label %_34.0
_85.landingpad.fail:
  resume { ptr, i32 } %_150
}

define void @"_SM26scala.sys.process.BasicIO$D17transferFullyImplL19java.io.InputStreamL20java.io.OutputStreamuEPT26scala.sys.process.BasicIO$"(ptr %_1, ptr %_2, ptr %_3) personality ptr @__gxx_personality_v0 {
_4000000.0:
  %_4000008 = icmp ne ptr %_1, null
  br i1 %_4000008, label %_4000006.0, label %_4000007.0
_4000006.0:
  %_4000001 = call dereferenceable_or_null(24) ptr @"_SM36scala.scalanative.runtime.ByteArray$D5allociL35scala.scalanative.runtime.ByteArrayEO"(ptr @"_SM36scala.scalanative.runtime.ByteArray$G8instance", i32 8192)
  call void @"_SM26scala.sys.process.BasicIO$D6loop$1L19java.io.InputStreamLAb_L20java.io.OutputStreamuEPT26scala.sys.process.BasicIO$"(ptr dereferenceable_or_null(40) %_1, ptr dereferenceable_or_null(16) %_2, ptr nonnull dereferenceable(24) %_4000001, ptr dereferenceable_or_null(16) %_3)
  %_4000012 = icmp ne ptr %_2, null
  br i1 %_4000012, label %_4000011.0, label %_4000007.0
_4000011.0:
  %_4000013 = load ptr, ptr %_2
  %_4000014 = getelementptr { { ptr, ptr, i32, i32, ptr }, i32, i32, ptr, [6 x ptr] }, { { ptr, ptr, i32, i32, ptr }, i32, i32, ptr, [6 x ptr] }* %_4000013, i32 0, i32 4, i32 3
  %_4000004 = load ptr, ptr %_4000014
  call void %_4000004(ptr dereferenceable_or_null(16) %_2)
  %_4000023 = load ptr, ptr @scalanative_GC_yieldpoint_trap
  %_4000024 = load volatile ptr, ptr %_4000023
  ret void
_4000007.0:
  call ptr @"_SM34scala.scalanative.runtime.package$D16throwNullPointernEO"(ptr null)
  unreachable
}

define void @"_SM26scala.sys.process.BasicIO$D6loop$1L19java.io.InputStreamLAb_L20java.io.OutputStreamuEPT26scala.sys.process.BasicIO$"(ptr %_1, ptr %_2, ptr %_3, ptr %_4) personality ptr @__gxx_personality_v0 {
_5.0:
  br label %_6.0
_6.0:
  %_7 = phi ptr [%_1, %_5.0], [%_7, %_34.0]
  %_39 = icmp ne ptr %_2, null
  br i1 %_39, label %_37.0, label %_38.0
_37.0:
  %_40 = load ptr, ptr %_2
  %_41 = getelementptr { { ptr, ptr, i32, i32, ptr }, i32, i32, ptr, [6 x ptr] }, { { ptr, ptr, i32, i32, ptr }, i32, i32, ptr, [6 x ptr] }* %_40, i32 0, i32 4, i32 5
  %_8 = load ptr, ptr %_41
  %_9 = call i32 %_8(ptr dereferenceable_or_null(16) %_2, ptr dereferenceable_or_null(24) %_3)
  %_14 = icmp sgt i32 %_9, 0
  br i1 %_14, label %_10.0, label %_11.0
_10.0:
  %_43 = icmp ne ptr %_4, null
  br i1 %_43, label %_42.0, label %_38.0
_42.0:
  %_44 = load ptr, ptr %_4
  %_45 = getelementptr { { ptr, ptr, i32, i32, ptr }, i32, i32, ptr, [7 x ptr] }, { { ptr, ptr, i32, i32, ptr }, i32, i32, ptr, [7 x ptr] }* %_44, i32 0, i32 4, i32 5
  %_15 = load ptr, ptr %_45
  call void %_15(ptr dereferenceable_or_null(16) %_4, ptr dereferenceable_or_null(24) %_3, i32 0, i32 %_9)
  br label %_19.0
_19.0:
  %_49 = load ptr, ptr %_4
  %_51 = getelementptr { { ptr, ptr, i32, i32, ptr }, i32, i32, ptr, [7 x ptr] }, { { ptr, ptr, i32, i32, ptr }, i32, i32, ptr, [7 x ptr] }* %_49, i32 0, i32 4, i32 4
  %_24 = load ptr, ptr %_51
  invoke void %_24(ptr dereferenceable_or_null(16) %_4) to label %_19.1 unwind label %_55.landingpad
_19.1:
  br label %_20.0
_17.0:
  %_21 = phi ptr [%_25, %_53.0], [%_23, %_47.0]
  %_60 = icmp eq ptr %_21, null
  br i1 %_60, label %_57.0, label %_58.0
_57.0:
  br label %_59.0
_58.0:
  %_61 = load ptr, ptr %_21
  %_62 = getelementptr { ptr, ptr, i32, i32, ptr }, { ptr, ptr, i32, i32, ptr }* %_61, i32 0, i32 2
  %_63 = load i32, ptr %_62
  %_64 = icmp sle i32 1112, %_63
  %_65 = icmp sle i32 %_63, 1123
  %_66 = and i1 %_64, %_65
  br label %_59.0
_59.0:
  %_27 = phi i1 [%_66, %_58.0], [false, %_57.0]
  br i1 %_27, label %_28.0, label %_29.0
_28.0:
  br label %_20.0
_29.0:
  %_68 = icmp ne ptr %_21, null
  br i1 %_68, label %_67.0, label %_38.0
_67.0:
  call ptr @"scalanative_throw"(ptr dereferenceable_or_null(16) %_21)
  unreachable
_20.0:
  %_22 = phi i1 [true, %_19.1], [false, %_28.0]
  br i1 %_22, label %_34.0, label %_35.0
_34.0:
  %_92 = load ptr, ptr @scalanative_GC_yieldpoint_trap
  %_93 = load volatile ptr, ptr %_92
  br label %_6.0
_35.0:
  br label %_36.0
_36.0:
  br label %_12.0
_11.0:
  br label %_12.0
_12.0:
  %_94 = load ptr, ptr @scalanative_GC_yieldpoint_trap
  %_95 = load volatile ptr, ptr %_94
  ret void
_38.0:
  call ptr @"_SM34scala.scalanative.runtime.package$D16throwNullPointernEO"(ptr null)
  unreachable
_47.0:
  %_23 = phi ptr [%_48, %_48.landingpad.succ], [%_50, %_50.landingpad.succ], [%_52, %_52.landingpad.succ]
  br label %_17.0
_53.0:
  %_25 = phi ptr [%_55, %_55.landingpad.succ]
  br label %_17.0
_48.landingpad:
  %_96 = landingpad { ptr, i32 } catch ptr @_ZTIN11scalanative16ExceptionWrapperE
  %_97 = extractvalue { ptr, i32 } %_96, 0
  %_98 = extractvalue { ptr, i32 } %_96, 1
  %_99 = call i32 @llvm.eh.typeid.for(ptr @_ZTIN11scalanative16ExceptionWrapperE)
  %_100 = icmp eq i32 %_98, %_99
  br i1 %_100, label %_48.landingpad.succ, label %_48.landingpad.fail
_48.landingpad.succ:
  %_101 = call ptr @__cxa_begin_catch(ptr %_97)
  %_103 = getelementptr ptr, ptr %_101, i32 1
  %_48 = load ptr, ptr %_103
  call void @__cxa_end_catch()br label %_47.0
_48.landingpad.fail:
  resume { ptr, i32 } %_96
_50.landingpad:
  %_104 = landingpad { ptr, i32 } catch ptr @_ZTIN11scalanative16ExceptionWrapperE
  %_105 = extractvalue { ptr, i32 } %_104, 0
  %_106 = extractvalue { ptr, i32 } %_104, 1
  %_107 = call i32 @llvm.eh.typeid.for(ptr @_ZTIN11scalanative16ExceptionWrapperE)
  %_108 = icmp eq i32 %_106, %_107
  br i1 %_108, label %_50.landingpad.succ, label %_50.landingpad.fail
_50.landingpad.succ:
  %_109 = call ptr @__cxa_begin_catch(ptr %_105)
  %_111 = getelementptr ptr, ptr %_109, i32 1
  %_50 = load ptr, ptr %_111
  call void @__cxa_end_catch()br label %_47.0
_50.landingpad.fail:
  resume { ptr, i32 } %_104
_52.landingpad:
  %_112 = landingpad { ptr, i32 } catch ptr @_ZTIN11scalanative16ExceptionWrapperE
  %_113 = extractvalue { ptr, i32 } %_112, 0
  %_114 = extractvalue { ptr, i32 } %_112, 1
  %_115 = call i32 @llvm.eh.typeid.for(ptr @_ZTIN11scalanative16ExceptionWrapperE)
  %_116 = icmp eq i32 %_114, %_115
  br i1 %_116, label %_52.landingpad.succ, label %_52.landingpad.fail
_52.landingpad.succ:
  %_117 = call ptr @__cxa_begin_catch(ptr %_113)
  %_119 = getelementptr ptr, ptr %_117, i32 1
  %_52 = load ptr, ptr %_119
  call void @__cxa_end_catch()br label %_47.0
_52.landingpad.fail:
  resume { ptr, i32 } %_112
_55.landingpad:
  %_120 = landingpad { ptr, i32 } catch ptr @_ZTIN11scalanative16ExceptionWrapperE
  %_121 = extractvalue { ptr, i32 } %_120, 0
  %_122 = extractvalue { ptr, i32 } %_120, 1
  %_123 = call i32 @llvm.eh.typeid.for(ptr @_ZTIN11scalanative16ExceptionWrapperE)
  %_124 = icmp eq i32 %_122, %_123
  br i1 %_124, label %_55.landingpad.succ, label %_55.landingpad.fail
_55.landingpad.succ:
  %_125 = call ptr @__cxa_begin_catch(ptr %_121)
  %_127 = getelementptr ptr, ptr %_125, i32 1
  %_55 = load ptr, ptr %_127
  call void @__cxa_end_catch()br label %_53.0
_55.landingpad.fail:
  resume { ptr, i32 } %_120
}

define nonnull dereferenceable(48) ptr @"_SM26scala.sys.process.BasicIO$D8standardzL27scala.sys.process.ProcessIOEO"(ptr %_1, i1 %_2) personality ptr @__gxx_personality_v0 {
_3000000.0:
  %_7000004 = icmp ne ptr %_1, null
  br i1 %_7000004, label %_7000002.0, label %_7000003.0
_7000002.0:
  br i1 %_2, label %_5000000.0, label %_6000000.0
_5000000.0:
  %_7000005 = getelementptr { { ptr, ptr }, ptr, ptr, ptr }, { { ptr, ptr }, ptr, ptr, ptr }* %_1, i32 0, i32 2
  %_5000001 = load atomic ptr, ptr %_7000005 unordered, align 8
  br label %_7000000.0
_6000000.0:
  %_7000006 = getelementptr { { ptr, ptr }, ptr, ptr, ptr }, { { ptr, ptr }, ptr, ptr, ptr }* %_1, i32 0, i32 1
  %_6000001 = load atomic ptr, ptr %_7000006 unordered, align 8
  br label %_7000000.0
_7000000.0:
  %_7000001 = phi ptr [%_6000001, %_6000000.0], [%_5000001, %_5000000.0]
  %_3000001 = call dereferenceable_or_null(48) ptr @"scalanative_GC_alloc_small"(ptr @"_SM27scala.sys.process.ProcessIOG4type", i64 48)
  %_3000002 = call dereferenceable_or_null(24) ptr @"scalanative_GC_alloc_small"(ptr @"_SM36scala.sys.process.BasicIO$$$Lambda$4G4type", i64 24)
  %_7000008 = getelementptr { { ptr, ptr }, ptr }, { { ptr, ptr }, ptr }* %_3000002, i32 0, i32 1
  store atomic ptr %_1, ptr%_7000008 unordered, align 8
  %_7000010 = getelementptr { { ptr, ptr }, ptr, ptr, i1, ptr }, { { ptr, ptr }, ptr, ptr, i1, ptr }* %_3000001, i32 0, i32 1
  store atomic ptr %_3000002, ptr%_7000010 unordered, align 8
  %_3000005 = call dereferenceable_or_null(24) ptr @"scalanative_GC_alloc_small"(ptr @"_SM36scala.sys.process.BasicIO$$$Lambda$5G4type", i64 24)
  %_7000012 = getelementptr { { ptr, ptr }, ptr }, { { ptr, ptr }, ptr }* %_3000005, i32 0, i32 1
  store atomic ptr %_1, ptr%_7000012 unordered, align 8
  %_7000014 = getelementptr { { ptr, ptr }, ptr, ptr, i1, ptr }, { { ptr, ptr }, ptr, ptr, i1, ptr }* %_3000001, i32 0, i32 2
  store atomic ptr %_3000005, ptr%_7000014 unordered, align 8
  %_7000016 = getelementptr { { ptr, ptr }, ptr, ptr, i1, ptr }, { { ptr, ptr }, ptr, ptr, i1, ptr }* %_3000001, i32 0, i32 4
  store atomic ptr %_7000001, ptr%_7000016 unordered, align 8
  %_7000043 = load ptr, ptr @scalanative_GC_yieldpoint_trap
  %_7000044 = load volatile ptr, ptr %_7000043
  ret ptr %_3000001
_7000003.0:
  call ptr @"_SM34scala.scalanative.runtime.package$D16throwNullPointernEO"(ptr null)
  unreachable
}

define dereferenceable_or_null(40) ptr @"_SM26scala.sys.process.BasicIO$G4load"() personality ptr @__gxx_personality_v0 {
_1.0:
  %_4 = getelementptr ptr, ptr @"__modules", i32 32
  %_5 = call ptr @"__scalanative_loadModule"(ptr %_4, ptr @"_SM26scala.sys.process.BasicIO$G4type", i64 40, ptr @"_SM26scala.sys.process.BasicIO$RE")
  ret ptr %_5
}

define void @"_SM26scala.sys.process.BasicIO$RE"(ptr %_1) personality ptr @__gxx_personality_v0 {
_2000000.0:
  %_2000012 = icmp ne ptr %_1, null
  br i1 %_2000012, label %_2000010.0, label %_2000011.0
_2000010.0:
  %_2000014 = getelementptr { { ptr, ptr }, ptr, ptr, ptr }, { { ptr, ptr }, ptr, ptr, ptr }* %_1, i32 0, i32 3
  store atomic ptr @"_SM7__constG2-65", ptr%_2000014 unordered, align 8
  %_2000003 = call dereferenceable_or_null(24) ptr @"scalanative_GC_alloc_small"(ptr @"_SM37scala.sys.process.BasicIO$$$Lambda$11G4type", i64 24)
  %_2000016 = getelementptr { { ptr, ptr }, ptr }, { { ptr, ptr }, ptr }* %_2000003, i32 0, i32 1
  store atomic ptr %_1, ptr%_2000016 unordered, align 8
  %_2000018 = getelementptr { { ptr, ptr }, ptr, ptr, ptr }, { { ptr, ptr }, ptr, ptr, ptr }* %_1, i32 0, i32 2
  store atomic ptr %_2000003, ptr%_2000018 unordered, align 8
  %_2000007 = call dereferenceable_or_null(24) ptr @"scalanative_GC_alloc_small"(ptr @"_SM37scala.sys.process.BasicIO$$$Lambda$12G4type", i64 24)
  %_2000020 = getelementptr { { ptr, ptr }, ptr }, { { ptr, ptr }, ptr }* %_2000007, i32 0, i32 1
  store atomic ptr %_1, ptr%_2000020 unordered, align 8
  %_2000022 = getelementptr { { ptr, ptr }, ptr, ptr, ptr }, { { ptr, ptr }, ptr, ptr, ptr }* %_1, i32 0, i32 1
  store atomic ptr %_2000007, ptr%_2000022 unordered, align 8
  %_2000042 = load ptr, ptr @scalanative_GC_yieldpoint_trap
  %_2000043 = load volatile ptr, ptr %_2000042
  ret void
_2000011.0:
  call ptr @"_SM34scala.scalanative.runtime.package$D16throwNullPointernEO"(ptr null)
  unreachable
}

define dereferenceable_or_null(16) ptr @"_SM37scala.sys.process.BasicIO$$$Lambda$11D5applyL16java.lang.ObjectL16java.lang.ObjectEO"(ptr %_1, ptr %_2) personality ptr @__gxx_personality_v0 {
_3000000.0:
  %_3000005 = icmp ne ptr %_1, null
  br i1 %_3000005, label %_3000003.0, label %_3000004.0
_3000003.0:
  %_3000006 = getelementptr { { ptr, ptr }, ptr }, { { ptr, ptr }, ptr }* %_1, i32 0, i32 1
  %_3000002 = load atomic ptr, ptr %_3000006 unordered, align 8
  ret ptr @"_SM36scala.scalanative.runtime.BoxedUnit$G8instance"
_3000004.0:
  call ptr @"_SM34scala.scalanative.runtime.package$D16throwNullPointernEO"(ptr null)
  unreachable
}

define dereferenceable_or_null(16) ptr @"_SM37scala.sys.process.BasicIO$$$Lambda$12D5applyL16java.lang.ObjectL16java.lang.ObjectEO"(ptr %_1, ptr %_2) personality ptr @__gxx_personality_v0 {
_3000000.0:
  %_3000005 = icmp ne ptr %_1, null
  br i1 %_3000005, label %_3000003.0, label %_3000004.0
_3000003.0:
  %_3000006 = getelementptr { { ptr, ptr }, ptr }, { { ptr, ptr }, ptr }* %_1, i32 0, i32 1
  %_3000002 = load atomic ptr, ptr %_3000006 unordered, align 8
  ret ptr @"_SM36scala.scalanative.runtime.BoxedUnit$G8instance"
_3000004.0:
  call ptr @"_SM34scala.scalanative.runtime.package$D16throwNullPointernEO"(ptr null)
  unreachable
}

define dereferenceable_or_null(16) ptr @"_SM36scala.sys.process.BasicIO$$$Lambda$4D5applyL16java.lang.ObjectL16java.lang.ObjectEO"(ptr %_1, ptr %_2) personality ptr @__gxx_personality_v0 {
_3000000.0:
  %_4000009 = icmp ne ptr %_1, null
  br i1 %_4000009, label %_4000007.0, label %_4000008.0
_4000007.0:
  %_4000010 = getelementptr { { ptr, ptr }, ptr }, { { ptr, ptr }, ptr }* %_1, i32 0, i32 1
  %_3000002 = load atomic ptr, ptr %_4000010 unordered, align 8
  %_4000001 = call dereferenceable_or_null(40) ptr @"_SM18java.lang.Streams$G4load"()
  %_4000011 = getelementptr { { ptr, ptr }, ptr, ptr, ptr }, { { ptr, ptr }, ptr, ptr, ptr }* %_4000001, i32 0, i32 1
  %_4000002 = load atomic ptr, ptr %_4000011 unordered, align 8
  %_4000004 = call dereferenceable_or_null(40) ptr @"_SM26scala.sys.process.BasicIO$G4load"()
  %_4000005 = bitcast ptr %_2 to ptr
  call void @"_SM26scala.sys.process.BasicIO$D13transferFullyL19java.io.InputStreamL20java.io.OutputStreamuEO"(ptr nonnull dereferenceable(40) %_4000004, ptr dereferenceable_or_null(16) %_4000005, ptr dereferenceable_or_null(56) %_4000002)
  %_4000021 = load ptr, ptr @scalanative_GC_yieldpoint_trap
  %_4000022 = load volatile ptr, ptr %_4000021
  ret ptr @"_SM36scala.scalanative.runtime.BoxedUnit$G8instance"
_4000008.0:
  call ptr @"_SM34scala.scalanative.runtime.package$D16throwNullPointernEO"(ptr null)
  unreachable
}

define dereferenceable_or_null(16) ptr @"_SM36scala.sys.process.BasicIO$$$Lambda$5D5applyL16java.lang.ObjectL16java.lang.ObjectEO"(ptr %_1, ptr %_2) personality ptr @__gxx_personality_v0 {
_3000000.0:
  %_4000009 = icmp ne ptr %_1, null
  br i1 %_4000009, label %_4000007.0, label %_4000008.0
_4000007.0:
  %_4000010 = getelementptr { { ptr, ptr }, ptr }, { { ptr, ptr }, ptr }* %_1, i32 0, i32 1
  %_3000002 = load atomic ptr, ptr %_4000010 unordered, align 8
  %_4000001 = call dereferenceable_or_null(40) ptr @"_SM18java.lang.Streams$G4load"()
  %_4000011 = getelementptr { { ptr, ptr }, ptr, ptr, ptr }, { { ptr, ptr }, ptr, ptr, ptr }* %_4000001, i32 0, i32 2
  %_4000002 = load atomic ptr, ptr %_4000011 unordered, align 8
  %_4000004 = call dereferenceable_or_null(40) ptr @"_SM26scala.sys.process.BasicIO$G4load"()
  %_4000005 = bitcast ptr %_2 to ptr
  call void @"_SM26scala.sys.process.BasicIO$D13transferFullyL19java.io.InputStreamL20java.io.OutputStreamuEO"(ptr nonnull dereferenceable(40) %_4000004, ptr dereferenceable_or_null(16) %_4000005, ptr dereferenceable_or_null(56) %_4000002)
  %_4000021 = load ptr, ptr @scalanative_GC_yieldpoint_trap
  %_4000022 = load volatile ptr, ptr %_4000021
  ret ptr @"_SM36scala.scalanative.runtime.BoxedUnit$G8instance"
_4000008.0:
  call ptr @"_SM34scala.scalanative.runtime.package$D16throwNullPointernEO"(ptr null)
  unreachable
}

define dereferenceable_or_null(16) ptr @"_SM36scala.sys.process.BasicIO$$$Lambda$6D5applyL16java.lang.ObjectEO"(ptr %_1) personality ptr @__gxx_personality_v0 {
_2000000.0:
  %_2000004 = icmp ne ptr %_1, null
  br i1 %_2000004, label %_2000002.0, label %_2000003.0
_2000002.0:
  %_2000005 = getelementptr { { ptr, ptr }, ptr }, { { ptr, ptr }, ptr }* %_1, i32 0, i32 1
  %_2000001 = load atomic ptr, ptr %_2000005 unordered, align 8
  ret ptr @"_SM36scala.scalanative.runtime.BoxedUnit$G8instance"
_2000003.0:
  call ptr @"_SM34scala.scalanative.runtime.package$D16throwNullPointernEO"(ptr null)
  unreachable
}

define void @"_SM36scala.sys.process.BasicIO$$$Lambda$6RL26scala.sys.process.BasicIO$E"(ptr %_1, ptr %_2) personality ptr @__gxx_personality_v0 {
_3000000.0:
  %_3000004 = icmp ne ptr %_1, null
  br i1 %_3000004, label %_3000002.0, label %_3000003.0
_3000002.0:
  %_3000006 = getelementptr { { ptr, ptr }, ptr }, { { ptr, ptr }, ptr }* %_1, i32 0, i32 1
  store atomic ptr %_2, ptr%_3000006 unordered, align 8
  ret void
_3000003.0:
  call ptr @"_SM34scala.scalanative.runtime.package$D16throwNullPointernEO"(ptr null)
  unreachable
}

define void @"_SM26scala.sys.process.Process$D18Spawn$lzycompute$1uEPT26scala.sys.process.Process$"(ptr %_1) personality ptr @__gxx_personality_v0 {
_2.0:
  call void @"_SM33scala.scalanative.runtime.packageD12enterMonitorL16java.lang.ObjectuEo"(ptr dereferenceable_or_null(24) %_1)
  br label %_3.0
_3.0:
  %_12 = invoke dereferenceable_or_null(24) ptr @"_SM26scala.sys.process.Process$G4load"() to label %_3.1 unwind label %_35.landingpad
_3.1:
  %_38 = getelementptr { { ptr, ptr }, ptr }, { { ptr, ptr }, ptr }* %_12, i32 0, i32 1
  %_14 = load atomic ptr, ptr %_38 seq_cst, align 8
  %_16 = icmp eq ptr %_14, null
  br i1 %_16, label %_7.0, label %_8.0
_7.0:
  %_18 = invoke dereferenceable_or_null(24) ptr @"_SM26scala.sys.process.Process$G4load"() to label %_7.1 unwind label %_43.landingpad
_7.1:
  %_20 = invoke dereferenceable_or_null(16) ptr @"scalanative_GC_alloc_small"(ptr @"_SM36scala.sys.process.ProcessImpl$Spawn$G4type", i64 16) to label %_7.2 unwind label %_45.landingpad
_7.2:
  invoke void @"_SM36scala.sys.process.ProcessImpl$Spawn$RL26scala.sys.process.Process$E"(ptr nonnull dereferenceable(16) %_20, ptr dereferenceable_or_null(24) %_1) to label %_7.3 unwind label %_48.landingpad
_7.3:
  %_24 = invoke dereferenceable_or_null(24) ptr @"_SM26scala.sys.process.Process$G4load"() to label %_7.4 unwind label %_51.landingpad
_7.4:
  %_55 = getelementptr { { ptr, ptr }, ptr }, { { ptr, ptr }, ptr }* %_24, i32 0, i32 1
  store atomic ptr %_20, ptr%_55 seq_cst, align 8
  br label %_9.0
_8.0:
  br label %_9.0
_9.0:
  br label %_29.0
_4.0:
  %_27 = phi ptr [%_25, %_52.0], [%_23, %_50.0], [%_21, %_46.0], [%_19, %_44.0], [%_17, %_42.0], [%_15, %_40.0], [%_13, %_36.0], [%_11, %_34.0]
  br label %_31.0
_29.0:
  call void @"_SM33scala.scalanative.runtime.packageD11exitMonitorL16java.lang.ObjectuEo"(ptr dereferenceable_or_null(24) %_1)
  br label %_5.0
_31.0:
  call void @"_SM33scala.scalanative.runtime.packageD11exitMonitorL16java.lang.ObjectuEo"(ptr dereferenceable_or_null(24) %_1)
  %_62 = icmp ne ptr %_27, null
  br i1 %_62, label %_60.0, label %_61.0
_60.0:
  call ptr @"scalanative_throw"(ptr dereferenceable_or_null(16) %_27)
  unreachable
_5.0:
  %_73 = load ptr, ptr @scalanative_GC_yieldpoint_trap
  %_74 = load volatile ptr, ptr %_73
  ret void
_61.0:
  call ptr @"_SM34scala.scalanative.runtime.package$D16throwNullPointernEO"(ptr null)
  unreachable
_34.0:
  %_11 = phi ptr [%_35, %_35.landingpad.succ]
  br label %_4.0
_36.0:
  %_13 = phi ptr [%_37, %_37.landingpad.succ], [%_39, %_39.landingpad.succ]
  br label %_4.0
_40.0:
  %_15 = phi ptr [%_41, %_41.landingpad.succ]
  br label %_4.0
_42.0:
  %_17 = phi ptr [%_43, %_43.landingpad.succ]
  br label %_4.0
_44.0:
  %_19 = phi ptr [%_45, %_45.landingpad.succ]
  br label %_4.0
_46.0:
  %_21 = phi ptr [%_48, %_48.landingpad.succ]
  br label %_4.0
_50.0:
  %_23 = phi ptr [%_51, %_51.landingpad.succ]
  br label %_4.0
_52.0:
  %_25 = phi ptr [%_54, %_54.landingpad.succ], [%_56, %_56.landingpad.succ]
  br label %_4.0
_35.landingpad:
  %_75 = landingpad { ptr, i32 } catch ptr @_ZTIN11scalanative16ExceptionWrapperE
  %_76 = extractvalue { ptr, i32 } %_75, 0
  %_77 = extractvalue { ptr, i32 } %_75, 1
  %_78 = call i32 @llvm.eh.typeid.for(ptr @_ZTIN11scalanative16ExceptionWrapperE)
  %_79 = icmp eq i32 %_77, %_78
  br i1 %_79, label %_35.landingpad.succ, label %_35.landingpad.fail
_35.landingpad.succ:
  %_80 = call ptr @__cxa_begin_catch(ptr %_76)
  %_82 = getelementptr ptr, ptr %_80, i32 1
  %_35 = load ptr, ptr %_82
  call void @__cxa_end_catch()br label %_34.0
_35.landingpad.fail:
  resume { ptr, i32 } %_75
_37.landingpad:
  %_83 = landingpad { ptr, i32 } catch ptr @_ZTIN11scalanative16ExceptionWrapperE
  %_84 = extractvalue { ptr, i32 } %_83, 0
  %_85 = extractvalue { ptr, i32 } %_83, 1
  %_86 = call i32 @llvm.eh.typeid.for(ptr @_ZTIN11scalanative16ExceptionWrapperE)
  %_87 = icmp eq i32 %_85, %_86
  br i1 %_87, label %_37.landingpad.succ, label %_37.landingpad.fail
_37.landingpad.succ:
  %_88 = call ptr @__cxa_begin_catch(ptr %_84)
  %_90 = getelementptr ptr, ptr %_88, i32 1
  %_37 = load ptr, ptr %_90
  call void @__cxa_end_catch()br label %_36.0
_37.landingpad.fail:
  resume { ptr, i32 } %_83
_39.landingpad:
  %_91 = landingpad { ptr, i32 } catch ptr @_ZTIN11scalanative16ExceptionWrapperE
  %_92 = extractvalue { ptr, i32 } %_91, 0
  %_93 = extractvalue { ptr, i32 } %_91, 1
  %_94 = call i32 @llvm.eh.typeid.for(ptr @_ZTIN11scalanative16ExceptionWrapperE)
  %_95 = icmp eq i32 %_93, %_94
  br i1 %_95, label %_39.landingpad.succ, label %_39.landingpad.fail
_39.landingpad.succ:
  %_96 = call ptr @__cxa_begin_catch(ptr %_92)
  %_98 = getelementptr ptr, ptr %_96, i32 1
  %_39 = load ptr, ptr %_98
  call void @__cxa_end_catch()br label %_36.0
_39.landingpad.fail:
  resume { ptr, i32 } %_91
_41.landingpad:
  %_99 = landingpad { ptr, i32 } catch ptr @_ZTIN11scalanative16ExceptionWrapperE
  %_100 = extractvalue { ptr, i32 } %_99, 0
  %_101 = extractvalue { ptr, i32 } %_99, 1
  %_102 = call i32 @llvm.eh.typeid.for(ptr @_ZTIN11scalanative16ExceptionWrapperE)
  %_103 = icmp eq i32 %_101, %_102
  br i1 %_103, label %_41.landingpad.succ, label %_41.landingpad.fail
_41.landingpad.succ:
  %_104 = call ptr @__cxa_begin_catch(ptr %_100)
  %_106 = getelementptr ptr, ptr %_104, i32 1
  %_41 = load ptr, ptr %_106
  call void @__cxa_end_catch()br label %_40.0
_41.landingpad.fail:
  resume { ptr, i32 } %_99
_43.landingpad:
  %_107 = landingpad { ptr, i32 } catch ptr @_ZTIN11scalanative16ExceptionWrapperE
  %_108 = extractvalue { ptr, i32 } %_107, 0
  %_109 = extractvalue { ptr, i32 } %_107, 1
  %_110 = call i32 @llvm.eh.typeid.for(ptr @_ZTIN11scalanative16ExceptionWrapperE)
  %_111 = icmp eq i32 %_109, %_110
  br i1 %_111, label %_43.landingpad.succ, label %_43.landingpad.fail
_43.landingpad.succ:
  %_112 = call ptr @__cxa_begin_catch(ptr %_108)
  %_114 = getelementptr ptr, ptr %_112, i32 1
  %_43 = load ptr, ptr %_114
  call void @__cxa_end_catch()br label %_42.0
_43.landingpad.fail:
  resume { ptr, i32 } %_107
_45.landingpad:
  %_115 = landingpad { ptr, i32 } catch ptr @_ZTIN11scalanative16ExceptionWrapperE
  %_116 = extractvalue { ptr, i32 } %_115, 0
  %_117 = extractvalue { ptr, i32 } %_115, 1
  %_118 = call i32 @llvm.eh.typeid.for(ptr @_ZTIN11scalanative16ExceptionWrapperE)
  %_119 = icmp eq i32 %_117, %_118
  br i1 %_119, label %_45.landingpad.succ, label %_45.landingpad.fail
_45.landingpad.succ:
  %_120 = call ptr @__cxa_begin_catch(ptr %_116)
  %_122 = getelementptr ptr, ptr %_120, i32 1
  %_45 = load ptr, ptr %_122
  call void @__cxa_end_catch()br label %_44.0
_45.landingpad.fail:
  resume { ptr, i32 } %_115
_48.landingpad:
  %_123 = landingpad { ptr, i32 } catch ptr @_ZTIN11scalanative16ExceptionWrapperE
  %_124 = extractvalue { ptr, i32 } %_123, 0
  %_125 = extractvalue { ptr, i32 } %_123, 1
  %_126 = call i32 @llvm.eh.typeid.for(ptr @_ZTIN11scalanative16ExceptionWrapperE)
  %_127 = icmp eq i32 %_125, %_126
  br i1 %_127, label %_48.landingpad.succ, label %_48.landingpad.fail
_48.landingpad.succ:
  %_128 = call ptr @__cxa_begin_catch(ptr %_124)
  %_130 = getelementptr ptr, ptr %_128, i32 1
  %_48 = load ptr, ptr %_130
  call void @__cxa_end_catch()br label %_46.0
_48.landingpad.fail:
  resume { ptr, i32 } %_123
_51.landingpad:
  %_131 = landingpad { ptr, i32 } catch ptr @_ZTIN11scalanative16ExceptionWrapperE
  %_132 = extractvalue { ptr, i32 } %_131, 0
  %_133 = extractvalue { ptr, i32 } %_131, 1
  %_134 = call i32 @llvm.eh.typeid.for(ptr @_ZTIN11scalanative16ExceptionWrapperE)
  %_135 = icmp eq i32 %_133, %_134
  br i1 %_135, label %_51.landingpad.succ, label %_51.landingpad.fail
_51.landingpad.succ:
  %_136 = call ptr @__cxa_begin_catch(ptr %_132)
  %_138 = getelementptr ptr, ptr %_136, i32 1
  %_51 = load ptr, ptr %_138
  call void @__cxa_end_catch()br label %_50.0
_51.landingpad.fail:
  resume { ptr, i32 } %_131
_54.landingpad:
  %_139 = landingpad { ptr, i32 } catch ptr @_ZTIN11scalanative16ExceptionWrapperE
  %_140 = extractvalue { ptr, i32 } %_139, 0
  %_141 = extractvalue { ptr, i32 } %_139, 1
  %_142 = call i32 @llvm.eh.typeid.for(ptr @_ZTIN11scalanative16ExceptionWrapperE)
  %_143 = icmp eq i32 %_141, %_142
  br i1 %_143, label %_54.landingpad.succ, label %_54.landingpad.fail
_54.landingpad.succ:
  %_144 = call ptr @__cxa_begin_catch(ptr %_140)
  %_146 = getelementptr ptr, ptr %_144, i32 1
  %_54 = load ptr, ptr %_146
  call void @__cxa_end_catch()br label %_52.0
_54.landingpad.fail:
  resume { ptr, i32 } %_139
_56.landingpad:
  %_147 = landingpad { ptr, i32 } catch ptr @_ZTIN11scalanative16ExceptionWrapperE
  %_148 = extractvalue { ptr, i32 } %_147, 0
  %_149 = extractvalue { ptr, i32 } %_147, 1
  %_150 = call i32 @llvm.eh.typeid.for(ptr @_ZTIN11scalanative16ExceptionWrapperE)
  %_151 = icmp eq i32 %_149, %_150
  br i1 %_151, label %_56.landingpad.succ, label %_56.landingpad.fail
_56.landingpad.succ:
  %_152 = call ptr @__cxa_begin_catch(ptr %_148)
  %_154 = getelementptr ptr, ptr %_152, i32 1
  %_56 = load ptr, ptr %_154
  call void @__cxa_end_catch()br label %_52.0
_56.landingpad.fail:
  resume { ptr, i32 } %_147
}

define dereferenceable_or_null(16) ptr @"_SM26scala.sys.process.Process$D5SpawnL36scala.sys.process.ProcessImpl$Spawn$EO"(ptr %_1) personality ptr @__gxx_personality_v0 {
_2000000.0:
  %_5000004 = icmp ne ptr %_1, null
  br i1 %_5000004, label %_5000002.0, label %_5000003.0
_5000002.0:
  %_2000002 = call dereferenceable_or_null(24) ptr @"_SM26scala.sys.process.Process$G4load"()
  %_5000005 = getelementptr { { ptr, ptr }, ptr }, { { ptr, ptr }, ptr }* %_2000002, i32 0, i32 1
  %_2000003 = load atomic ptr, ptr %_5000005 seq_cst, align 8
  %_2000005 = icmp eq ptr %_2000003, null
  br i1 %_2000005, label %_3000000.0, label %_4000000.0
_3000000.0:
  call void @"_SM26scala.sys.process.Process$D18Spawn$lzycompute$1uEPT26scala.sys.process.Process$"(ptr dereferenceable_or_null(24) %_1)
  br label %_5000000.0
_4000000.0:
  br label %_5000000.0
_5000000.0:
  %_5000007 = getelementptr { { ptr, ptr }, ptr }, { { ptr, ptr }, ptr }* %_2000002, i32 0, i32 1
  %_5000001 = load atomic ptr, ptr %_5000007 seq_cst, align 8
  %_5000016 = load ptr, ptr @scalanative_GC_yieldpoint_trap
  %_5000017 = load volatile ptr, ptr %_5000016
  ret ptr %_5000001
_5000003.0:
  call ptr @"_SM34scala.scalanative.runtime.package$D16throwNullPointernEO"(ptr null)
  unreachable
}

define dereferenceable_or_null(24) ptr @"_SM26scala.sys.process.Process$G4load"() personality ptr @__gxx_personality_v0 {
_1.0:
  %_4 = getelementptr ptr, ptr @"__modules", i32 302
  %_5 = call ptr @"__scalanative_loadModule"(ptr %_4, ptr @"_SM26scala.sys.process.Process$G4type", i64 24, ptr @"_SM26scala.sys.process.Process$RE")
  ret ptr %_5
}

define void @"_SM26scala.sys.process.Process$RE"(ptr %_1) personality ptr @__gxx_personality_v0 {
_2000000.0:
  ret void
}

define void @"_SM33scala.sys.process.ProcessBuilder$RE"(ptr %_1) personality ptr @__gxx_personality_v0 {
_2000000.0:
  ret void
}

define void @"_SM43scala.sys.process.ProcessBuilderImpl$SimpleD14$anonfun$run$2L27scala.sys.process.ProcessIOL17java.lang.ProcessuEPT43scala.sys.process.ProcessBuilderImpl$Simple"(ptr %_1, ptr %_2, ptr %_3) personality ptr @__gxx_personality_v0 {
_4000000.0:
  %_5000004 = icmp ne ptr %_2, null
  br i1 %_5000004, label %_5000002.0, label %_5000003.0
_5000002.0:
  %_5000005 = getelementptr { { ptr, ptr }, ptr, ptr, i1, ptr }, { { ptr, ptr }, ptr, ptr, i1, ptr }* %_2, i32 0, i32 4
  %_5000001 = load atomic ptr, ptr %_5000005 unordered, align 8
  %_5000007 = icmp ne ptr %_3, null
  br i1 %_5000007, label %_5000006.0, label %_5000003.0
_5000006.0:
  %_4000007 = call dereferenceable_or_null(40) ptr @"_SM16java.lang.ObjectD8getClassL15java.lang.ClassEO"(ptr dereferenceable_or_null(16) %_3)
  %_4000008 = icmp eq ptr %_4000007, @"_SM33java.lang.process.UnixProcessGen1G4type"
  br i1 %_4000008, label %_4000003.0, label %_4000004.0
_4000003.0:
  %_4000009 = bitcast ptr %_3 to ptr
  %_4000010 = call dereferenceable_or_null(16) ptr @"_SM33java.lang.process.UnixProcessGen1D15getOutputStreamL20java.io.OutputStreamEO"(ptr dereferenceable_or_null(72) %_4000009)
  br label %_4000005.0
_4000004.0:
  %_4000011 = bitcast ptr %_3 to ptr
  %_4000012 = call dereferenceable_or_null(16) ptr @"_SM33java.lang.process.UnixProcessGen2D15getOutputStreamL20java.io.OutputStreamEO"(ptr dereferenceable_or_null(80) %_4000011)
  br label %_4000005.0
_4000005.0:
  %_4000013 = phi ptr [%_4000012, %_4000004.0], [%_4000010, %_4000003.0]
  %_5000009 = icmp ne ptr %_5000001, null
  br i1 %_5000009, label %_5000008.0, label %_5000003.0
_5000008.0:
  %_5000010 = load ptr, ptr %_5000001
  %_5000011 = getelementptr { ptr, ptr, i32, i32, ptr }, { ptr, ptr, i32, i32, ptr }* %_5000010, i32 0, i32 3
  %_5000012 = load i32, ptr %_5000011
  %_5000013 = getelementptr ptr, ptr @"_SM22__scalanative_metadataG14dispatch_table", i32 1812
  %_5000014 = getelementptr ptr, ptr %_5000013, i32 %_5000012
  %_4000015 = load ptr, ptr %_5000014
  %_4000016 = call dereferenceable_or_null(16) ptr %_4000015(ptr dereferenceable_or_null(16) %_5000001, ptr dereferenceable_or_null(16) %_4000013)
  %_5000031 = load ptr, ptr @scalanative_GC_yieldpoint_trap
  %_5000032 = load volatile ptr, ptr %_5000031
  ret void
_5000003.0:
  call ptr @"_SM34scala.scalanative.runtime.package$D16throwNullPointernEO"(ptr null)
  unreachable
}

define void @"_SM43scala.sys.process.ProcessBuilderImpl$SimpleD14$anonfun$run$3L27scala.sys.process.ProcessIOL17java.lang.ProcessuEPT43scala.sys.process.ProcessBuilderImpl$Simple"(ptr %_1, ptr %_2, ptr %_3) personality ptr @__gxx_personality_v0 {
_4000000.0:
  %_5000004 = icmp ne ptr %_2, null
  br i1 %_5000004, label %_5000002.0, label %_5000003.0
_5000002.0:
  %_5000005 = getelementptr { { ptr, ptr }, ptr, ptr, i1, ptr }, { { ptr, ptr }, ptr, ptr, i1, ptr }* %_2, i32 0, i32 2
  %_5000001 = load atomic ptr, ptr %_5000005 unordered, align 8
  %_5000007 = icmp ne ptr %_3, null
  br i1 %_5000007, label %_5000006.0, label %_5000003.0
_5000006.0:
  %_4000007 = call dereferenceable_or_null(40) ptr @"_SM16java.lang.ObjectD8getClassL15java.lang.ClassEO"(ptr dereferenceable_or_null(16) %_3)
  %_4000008 = icmp eq ptr %_4000007, @"_SM33java.lang.process.UnixProcessGen1G4type"
  br i1 %_4000008, label %_4000003.0, label %_4000004.0
_4000003.0:
  %_4000009 = bitcast ptr %_3 to ptr
  %_4000010 = call dereferenceable_or_null(16) ptr @"_SM33java.lang.process.UnixProcessGen1D14getInputStreamL19java.io.InputStreamEO"(ptr dereferenceable_or_null(72) %_4000009)
  br label %_4000005.0
_4000004.0:
  %_4000011 = bitcast ptr %_3 to ptr
  %_4000012 = call dereferenceable_or_null(16) ptr @"_SM33java.lang.process.UnixProcessGen2D14getInputStreamL19java.io.InputStreamEO"(ptr dereferenceable_or_null(80) %_4000011)
  br label %_4000005.0
_4000005.0:
  %_4000013 = phi ptr [%_4000012, %_4000004.0], [%_4000010, %_4000003.0]
  %_5000009 = icmp ne ptr %_5000001, null
  br i1 %_5000009, label %_5000008.0, label %_5000003.0
_5000008.0:
  %_5000010 = load ptr, ptr %_5000001
  %_5000011 = getelementptr { ptr, ptr, i32, i32, ptr }, { ptr, ptr, i32, i32, ptr }* %_5000010, i32 0, i32 3
  %_5000012 = load i32, ptr %_5000011
  %_5000013 = getelementptr ptr, ptr @"_SM22__scalanative_metadataG14dispatch_table", i32 1812
  %_5000014 = getelementptr ptr, ptr %_5000013, i32 %_5000012
  %_4000015 = load ptr, ptr %_5000014
  %_4000016 = call dereferenceable_or_null(16) ptr %_4000015(ptr dereferenceable_or_null(16) %_5000001, ptr dereferenceable_or_null(16) %_4000013)
  %_5000031 = load ptr, ptr @scalanative_GC_yieldpoint_trap
  %_5000032 = load volatile ptr, ptr %_5000031
  ret void
_5000003.0:
  call ptr @"_SM34scala.scalanative.runtime.package$D16throwNullPointernEO"(ptr null)
  unreachable
}

define void @"_SM43scala.sys.process.ProcessBuilderImpl$SimpleD14$anonfun$run$4L27scala.sys.process.ProcessIOL17java.lang.ProcessuEPT43scala.sys.process.ProcessBuilderImpl$Simple"(ptr %_1, ptr %_2, ptr %_3) personality ptr @__gxx_personality_v0 {
_4000000.0:
  %_5000004 = icmp ne ptr %_2, null
  br i1 %_5000004, label %_5000002.0, label %_5000003.0
_5000002.0:
  %_5000005 = getelementptr { { ptr, ptr }, ptr, ptr, i1, ptr }, { { ptr, ptr }, ptr, ptr, i1, ptr }* %_2, i32 0, i32 1
  %_5000001 = load atomic ptr, ptr %_5000005 unordered, align 8
  %_5000007 = icmp ne ptr %_3, null
  br i1 %_5000007, label %_5000006.0, label %_5000003.0
_5000006.0:
  %_4000007 = call dereferenceable_or_null(40) ptr @"_SM16java.lang.ObjectD8getClassL15java.lang.ClassEO"(ptr dereferenceable_or_null(16) %_3)
  %_4000008 = icmp eq ptr %_4000007, @"_SM33java.lang.process.UnixProcessGen1G4type"
  br i1 %_4000008, label %_4000003.0, label %_4000004.0
_4000003.0:
  %_4000009 = bitcast ptr %_3 to ptr
  %_4000010 = call dereferenceable_or_null(16) ptr @"_SM33java.lang.process.UnixProcessGen1D14getErrorStreamL19java.io.InputStreamEO"(ptr dereferenceable_or_null(72) %_4000009)
  br label %_4000005.0
_4000004.0:
  %_4000011 = bitcast ptr %_3 to ptr
  %_4000012 = call dereferenceable_or_null(16) ptr @"_SM33java.lang.process.UnixProcessGen2D14getErrorStreamL19java.io.InputStreamEO"(ptr dereferenceable_or_null(80) %_4000011)
  br label %_4000005.0
_4000005.0:
  %_4000013 = phi ptr [%_4000012, %_4000004.0], [%_4000010, %_4000003.0]
  %_5000009 = icmp ne ptr %_5000001, null
  br i1 %_5000009, label %_5000008.0, label %_5000003.0
_5000008.0:
  %_5000010 = load ptr, ptr %_5000001
  %_5000011 = getelementptr { ptr, ptr, i32, i32, ptr }, { ptr, ptr, i32, i32, ptr }* %_5000010, i32 0, i32 3
  %_5000012 = load i32, ptr %_5000011
  %_5000013 = getelementptr ptr, ptr @"_SM22__scalanative_metadataG14dispatch_table", i32 1812
  %_5000014 = getelementptr ptr, ptr %_5000013, i32 %_5000012
  %_4000015 = load ptr, ptr %_5000014
  %_4000016 = call dereferenceable_or_null(16) ptr %_4000015(ptr dereferenceable_or_null(16) %_5000001, ptr dereferenceable_or_null(16) %_4000013)
  %_5000031 = load ptr, ptr @scalanative_GC_yieldpoint_trap
  %_5000032 = load volatile ptr, ptr %_5000031
  ret void
_5000003.0:
  call ptr @"_SM34scala.scalanative.runtime.package$D16throwNullPointernEO"(ptr null)
  unreachable
}

define nonnull dereferenceable(48) ptr @"_SM43scala.sys.process.ProcessBuilderImpl$SimpleD3runL27scala.sys.process.ProcessIOL25scala.sys.process.ProcessEO"(ptr %_1, ptr %_2) personality ptr @__gxx_personality_v0 {
_3000000.0:
  %_41000003 = icmp ne ptr %_1, null
  br i1 %_41000003, label %_41000001.0, label %_41000002.0
_41000001.0:
  %_41000005 = icmp ne ptr %_2, null
  br i1 %_41000005, label %_41000004.0, label %_41000002.0
_41000004.0:
  %_41000006 = getelementptr { { ptr, ptr }, ptr, ptr, i1, ptr }, { { ptr, ptr }, ptr, ptr, i1, ptr }* %_2, i32 0, i32 4
  %_4000001 = load atomic ptr, ptr %_41000006 unordered, align 8
  %_5000001 = call dereferenceable_or_null(40) ptr @"_SM26scala.sys.process.BasicIO$G4load"()
  %_41000007 = getelementptr { { ptr, ptr }, ptr, ptr, ptr }, { { ptr, ptr }, ptr, ptr, ptr }* %_5000001, i32 0, i32 2
  %_5000002 = load atomic ptr, ptr %_41000007 unordered, align 8
  %_3000003 = icmp eq ptr %_4000001, %_5000002
  br i1 %_3000003, label %_6000000.0, label %_7000000.0
_6000000.0:
  %_41000008 = getelementptr { { ptr, ptr }, ptr, i32, ptr }, { { ptr, ptr }, ptr, i32, ptr }* %_1, i32 0, i32 3
  %_6000001 = load atomic ptr, ptr %_41000008 unordered, align 8
  %_8000001 = call dereferenceable_or_null(32) ptr @"_SM34java.lang.ProcessBuilder$Redirect$G4load"()
  %_41000009 = getelementptr { { ptr, ptr }, ptr, ptr }, { { ptr, ptr }, ptr, ptr }* %_8000001, i32 0, i32 2
  %_8000002 = load atomic ptr, ptr %_41000009 unordered, align 8
  %_6000002 = call dereferenceable_or_null(72) ptr @"_SM24java.lang.ProcessBuilderD13redirectInputL33java.lang.ProcessBuilder$RedirectL24java.lang.ProcessBuilderEO"(ptr dereferenceable_or_null(72) %_6000001, ptr dereferenceable_or_null(16) %_8000002)
  br label %_9000000.0
_7000000.0:
  br label %_9000000.0
_9000000.0:
  %_41000010 = getelementptr { { ptr, ptr }, ptr, i32, ptr }, { { ptr, ptr }, ptr, i32, ptr }* %_1, i32 0, i32 3
  %_9000001 = load atomic ptr, ptr %_41000010 unordered, align 8
  %_9000002 = call dereferenceable_or_null(16) ptr @"_SM24java.lang.ProcessBuilderD5startL17java.lang.ProcessEO"(ptr dereferenceable_or_null(72) %_9000001)
  br i1 %_3000003, label %_10000000.0, label %_11000000.0
_10000000.0:
  br label %_12000000.0
_11000000.0:
  %_41000011 = getelementptr { { ptr, ptr }, ptr, ptr, i1, ptr }, { { ptr, ptr }, ptr, ptr, i1, ptr }* %_2, i32 0, i32 4
  %_13000001 = load atomic ptr, ptr %_41000011 unordered, align 8
  %_41000012 = getelementptr { { ptr, ptr }, ptr, ptr, ptr }, { { ptr, ptr }, ptr, ptr, ptr }* %_5000001, i32 0, i32 1
  %_14000001 = load atomic ptr, ptr %_41000012 unordered, align 8
  %_11000002 = icmp eq ptr %_13000001, %_14000001
  br label %_12000000.0
_12000000.0:
  %_12000001 = phi i1 [%_11000002, %_11000000.0], [true, %_10000000.0]
  br i1 %_12000001, label %_15000000.0, label %_16000000.0
_15000000.0:
  br label %_17000000.0
_16000000.0:
  %_16000002 = call dereferenceable_or_null(24) ptr @"_SM26scala.sys.process.Process$G4load"()
  %_16000003 = call dereferenceable_or_null(16) ptr @"_SM26scala.sys.process.Process$D5SpawnL36scala.sys.process.ProcessImpl$Spawn$EO"(ptr nonnull dereferenceable(24) %_16000002)
  %_16000007 = call dereferenceable_or_null(40) ptr @"scalanative_GC_alloc_small"(ptr @"_SM53scala.sys.process.ProcessBuilderImpl$Simple$$Lambda$1G4type", i64 40)
  %_41000014 = getelementptr { { ptr, ptr }, ptr, ptr, ptr }, { { ptr, ptr }, ptr, ptr, ptr }* %_16000007, i32 0, i32 3
  store atomic ptr %_9000002, ptr%_41000014 unordered, align 8
  %_41000016 = getelementptr { { ptr, ptr }, ptr, ptr, ptr }, { { ptr, ptr }, ptr, ptr, ptr }* %_16000007, i32 0, i32 2
  store atomic ptr %_2, ptr%_41000016 unordered, align 8
  %_41000018 = getelementptr { { ptr, ptr }, ptr, ptr, ptr }, { { ptr, ptr }, ptr, ptr, ptr }* %_16000007, i32 0, i32 1
  store atomic ptr %_1, ptr%_41000018 unordered, align 8
  %_16000011 = call nonnull dereferenceable(112) ptr @"_SM36scala.sys.process.ProcessImpl$Spawn$D5applyL16java.lang.StringzL15scala.Function0L16java.lang.ThreadEO"(ptr dereferenceable_or_null(16) %_16000003, ptr @"_SM7__constG2-67", i1 true, ptr nonnull dereferenceable(40) %_16000007)
  br label %_17000000.0
_17000000.0:
  %_17000001 = phi ptr [%_16000011, %_16000000.0], [null, %_15000000.0]
  %_17000003 = call dereferenceable_or_null(24) ptr @"_SM26scala.sys.process.Process$G4load"()
  %_17000004 = call dereferenceable_or_null(16) ptr @"_SM26scala.sys.process.Process$D5SpawnL36scala.sys.process.ProcessImpl$Spawn$EO"(ptr nonnull dereferenceable(24) %_17000003)
  %_41000019 = getelementptr { { ptr, ptr }, ptr, ptr, i1, ptr }, { { ptr, ptr }, ptr, ptr, i1, ptr }* %_2, i32 0, i32 3
  %_41000020 = load atomic i8, ptr %_41000019 unordered, align 1
  %_19000001 = trunc i8 %_41000020 to i1
  %_17000008 = call dereferenceable_or_null(40) ptr @"scalanative_GC_alloc_small"(ptr @"_SM53scala.sys.process.ProcessBuilderImpl$Simple$$Lambda$2G4type", i64 40)
  %_41000022 = getelementptr { { ptr, ptr }, ptr, ptr, ptr }, { { ptr, ptr }, ptr, ptr, ptr }* %_17000008, i32 0, i32 3
  store atomic ptr %_9000002, ptr%_41000022 unordered, align 8
  %_41000024 = getelementptr { { ptr, ptr }, ptr, ptr, ptr }, { { ptr, ptr }, ptr, ptr, ptr }* %_17000008, i32 0, i32 2
  store atomic ptr %_2, ptr%_41000024 unordered, align 8
  %_41000026 = getelementptr { { ptr, ptr }, ptr, ptr, ptr }, { { ptr, ptr }, ptr, ptr, ptr }* %_17000008, i32 0, i32 1
  store atomic ptr %_1, ptr%_41000026 unordered, align 8
  %_17000012 = call nonnull dereferenceable(112) ptr @"_SM36scala.sys.process.ProcessImpl$Spawn$D5applyL16java.lang.StringzL15scala.Function0L16java.lang.ThreadEO"(ptr dereferenceable_or_null(16) %_17000004, ptr @"_SM7__constG2-69", i1 %_19000001, ptr nonnull dereferenceable(40) %_17000008)
  %_41000027 = getelementptr { { ptr, ptr }, ptr, i32, ptr }, { { ptr, ptr }, ptr, i32, ptr }* %_1, i32 0, i32 3
  %_17000013 = load atomic ptr, ptr %_41000027 unordered, align 8
  %_41000029 = icmp ne ptr %_17000013, null
  br i1 %_41000029, label %_41000028.0, label %_41000002.0
_41000028.0:
  %_41000030 = getelementptr { { ptr, ptr }, i1, ptr, ptr, ptr, ptr, ptr, ptr }, { { ptr, ptr }, i1, ptr, ptr, ptr, ptr, ptr, ptr }* %_17000013, i32 0, i32 1
  %_41000031 = load atomic i8, ptr %_41000030 unordered, align 1
  %_21000001 = trunc i8 %_41000031 to i1
  br i1 %_21000001, label %_22000000.0, label %_23000000.0
_22000000.0:
  %_24000001 = call dereferenceable_or_null(72) ptr @"_SM14scala.package$G4load"()
  %_41000032 = getelementptr { { ptr, ptr }, ptr, i32, ptr, ptr, ptr, ptr, ptr }, { { ptr, ptr }, ptr, i32, ptr, ptr, ptr, ptr, ptr }* %_24000001, i32 0, i32 2
  %_24000002 = load atomic i32, ptr %_41000032 seq_cst, align 4
  %_24000005 = and i32 %_24000002, 128
  %_24000006 = icmp eq i32 %_24000005, 0
  br i1 %_24000006, label %_25000000.0, label %_26000000.0
_25000000.0:
  %_25000001 = call dereferenceable_or_null(24) ptr @"_SM14scala.package$D14Nil$lzycomputeL31scala.collection.immutable.Nil$EPT14scala.package$"(ptr nonnull dereferenceable(72) %_24000001)
  br label %_27000000.0
_26000000.0:
  %_41000033 = getelementptr { { ptr, ptr }, ptr, i32, ptr, ptr, ptr, ptr, ptr }, { { ptr, ptr }, ptr, i32, ptr, ptr, ptr, ptr, ptr }* %_24000001, i32 0, i32 1
  %_26000001 = load atomic ptr, ptr %_41000033 unordered, align 8
  br label %_27000000.0
_27000000.0:
  %_27000001 = phi ptr [%_26000001, %_26000000.0], [%_25000001, %_25000000.0]
  br label %_28000000.0
_23000000.0:
  %_29000001 = call dereferenceable_or_null(72) ptr @"_SM14scala.package$G4load"()
  %_41000034 = getelementptr { { ptr, ptr }, ptr, i32, ptr, ptr, ptr, ptr, ptr }, { { ptr, ptr }, ptr, i32, ptr, ptr, ptr, ptr, ptr }* %_29000001, i32 0, i32 2
  %_29000002 = load atomic i32, ptr %_41000034 seq_cst, align 4
  %_29000005 = and i32 %_29000002, 64
  %_29000006 = icmp eq i32 %_29000005, 0
  br i1 %_29000006, label %_30000000.0, label %_31000000.0
_30000000.0:
  %_30000001 = call dereferenceable_or_null(32) ptr @"_SM14scala.package$D15List$lzycomputeL32scala.collection.immutable.List$EPT14scala.package$"(ptr nonnull dereferenceable(72) %_29000001)
  br label %_32000000.0
_31000000.0:
  %_41000035 = getelementptr { { ptr, ptr }, ptr, i32, ptr, ptr, ptr, ptr, ptr }, { { ptr, ptr }, ptr, i32, ptr, ptr, ptr, ptr, ptr }* %_29000001, i32 0, i32 5
  %_31000001 = load atomic ptr, ptr %_41000035 unordered, align 8
  br label %_32000000.0
_32000000.0:
  %_32000001 = phi ptr [%_31000001, %_31000000.0], [%_30000001, %_30000000.0]
  %_23000003 = call dereferenceable_or_null(16) ptr @"_SM26scala.sys.process.Process$D5SpawnL36scala.sys.process.ProcessImpl$Spawn$EO"(ptr nonnull dereferenceable(24) %_17000003)
  %_41000036 = getelementptr { { ptr, ptr }, ptr, ptr, i1, ptr }, { { ptr, ptr }, ptr, ptr, i1, ptr }* %_2, i32 0, i32 3
  %_41000037 = load atomic i8, ptr %_41000036 unordered, align 1
  %_33000001 = trunc i8 %_41000037 to i1
  %_23000007 = call dereferenceable_or_null(40) ptr @"scalanative_GC_alloc_small"(ptr @"_SM53scala.sys.process.ProcessBuilderImpl$Simple$$Lambda$3G4type", i64 40)
  %_41000039 = getelementptr { { ptr, ptr }, ptr, ptr, ptr }, { { ptr, ptr }, ptr, ptr, ptr }* %_23000007, i32 0, i32 3
  store atomic ptr %_9000002, ptr%_41000039 unordered, align 8
  %_41000041 = getelementptr { { ptr, ptr }, ptr, ptr, ptr }, { { ptr, ptr }, ptr, ptr, ptr }* %_23000007, i32 0, i32 2
  store atomic ptr %_2, ptr%_41000041 unordered, align 8
  %_41000043 = getelementptr { { ptr, ptr }, ptr, ptr, ptr }, { { ptr, ptr }, ptr, ptr, ptr }* %_23000007, i32 0, i32 1
  store atomic ptr %_1, ptr%_41000043 unordered, align 8
  %_23000011 = call nonnull dereferenceable(112) ptr @"_SM36scala.sys.process.ProcessImpl$Spawn$D5applyL16java.lang.StringzL15scala.Function0L16java.lang.ThreadEO"(ptr dereferenceable_or_null(16) %_23000003, ptr @"_SM7__constG2-71", i1 %_33000001, ptr nonnull dereferenceable(40) %_23000007)
  %_23000014 = call dereferenceable_or_null(24) ptr @"_SM38scala.scalanative.runtime.ObjectArray$D5allociL37scala.scalanative.runtime.ObjectArrayEO"(ptr @"_SM38scala.scalanative.runtime.ObjectArray$G8instance", i32 1)
  %_41000047 = getelementptr { ptr, ptr, i32, i32 }, { ptr, ptr, i32, i32 }* %_23000014, i32 0, i32 2
  %_41000046 = load i32, ptr %_41000047
  %_41000050 = icmp sge i32 0, 0
  %_41000051 = icmp slt i32 0, %_41000046
  %_41000052 = and i1 %_41000050, %_41000051
  br i1 %_41000052, label %_41000048.0, label %_41000049.0
_41000048.0:
  %_41000053 = getelementptr { { ptr, ptr, i32, i32 }, [0 x ptr] }, { { ptr, ptr, i32, i32 }, [0 x ptr] }* %_23000014, i32 0, i32 1, i32 0
  store ptr %_23000011, ptr%_41000053, align 8
  %_23000016 = call dereferenceable_or_null(24) ptr @"_SM27scala.runtime.ScalaRunTime$D12wrapRefArrayLAL16java.lang.Object_L35scala.collection.immutable.ArraySeqEO"(ptr nonnull dereferenceable(16) @"_SM27scala.runtime.ScalaRunTime$G8instance", ptr nonnull dereferenceable(24) %_23000014)
  %_35000001 = call dereferenceable_or_null(24) ptr @"_SM31scala.collection.immutable.Nil$G4load"()
  %_35000002 = call dereferenceable_or_null(16) ptr @"_SM31scala.collection.immutable.ListD12prependedAllL29scala.collection.IterableOnceL31scala.collection.immutable.ListEO"(ptr nonnull dereferenceable(24) %_35000001, ptr dereferenceable_or_null(24) %_23000016)
  br label %_28000000.0
_28000000.0:
  %_28000001 = phi ptr [%_35000002, %_41000048.0], [%_27000001, %_27000000.0]
  br label %_37000000.0
_37000000.0:
  %_37000001 = call i32 @"scalanative_atomic_memory_order_release"()
  call void @"scalanative_atomic_thread_fence"(i32 %_37000001)
  br label %_38000000.0
_38000000.0:
  br label %_40000000.0
_40000000.0:
  br label %_41000000.0
_41000000.0:
  %_28000003 = call dereferenceable_or_null(48) ptr @"scalanative_GC_alloc_small"(ptr @"_SM43scala.sys.process.ProcessImpl$SimpleProcessG4type", i64 48)
  %_41000056 = getelementptr { { ptr, ptr }, ptr, ptr, ptr, ptr }, { { ptr, ptr }, ptr, ptr, ptr, ptr }* %_28000003, i32 0, i32 4
  store atomic ptr %_17000003, ptr%_41000056 unordered, align 8
  %_28000005 = call dereferenceable_or_null(32) ptr @"scalanative_GC_alloc_small"(ptr @"_SM39scala.collection.immutable.$colon$colonG4type", i64 32)
  %_41000058 = getelementptr { { ptr, ptr }, ptr, ptr }, { { ptr, ptr }, ptr, ptr }* %_28000005, i32 0, i32 1
  store atomic ptr %_28000001, ptr%_41000058 unordered, align 8
  %_41000060 = getelementptr { { ptr, ptr }, ptr, ptr }, { { ptr, ptr }, ptr, ptr }* %_28000005, i32 0, i32 2
  store atomic ptr %_17000012, ptr%_41000060 unordered, align 8
  %_41000062 = getelementptr { { ptr, ptr }, ptr, ptr, ptr, ptr }, { { ptr, ptr }, ptr, ptr, ptr, ptr }* %_28000003, i32 0, i32 1
  store atomic ptr %_28000005, ptr%_41000062 unordered, align 8
  %_41000064 = getelementptr { { ptr, ptr }, ptr, ptr, ptr, ptr }, { { ptr, ptr }, ptr, ptr, ptr, ptr }* %_28000003, i32 0, i32 3
  store atomic ptr %_17000001, ptr%_41000064 unordered, align 8
  %_41000066 = getelementptr { { ptr, ptr }, ptr, ptr, ptr, ptr }, { { ptr, ptr }, ptr, ptr, ptr, ptr }* %_28000003, i32 0, i32 2
  store atomic ptr %_9000002, ptr%_41000066 unordered, align 8
  %_41000173 = load ptr, ptr @scalanative_GC_yieldpoint_trap
  %_41000174 = load volatile ptr, ptr %_41000173
  ret ptr %_28000003
_41000002.0:
  call ptr @"_SM34scala.scalanative.runtime.package$D16throwNullPointernEO"(ptr null)
  unreachable
_41000049.0:
  %_41000069 = phi i32 [0, %_32000000.0]
  %_41000070 = phi i32 [%_41000046, %_32000000.0]
  call ptr @"_SM34scala.scalanative.runtime.package$D16throwOutOfBoundsiinEO"(ptr null, i32 %_41000069, i32 %_41000070)
  unreachable
}

define dereferenceable_or_null(40) ptr @"_SM43scala.sys.process.ProcessBuilderImpl$SimpleD8toStringL16java.lang.StringEO"(ptr %_1) personality ptr @__gxx_personality_v0 {
_2000000.0:
  %_3000004 = icmp ne ptr %_1, null
  br i1 %_3000004, label %_3000002.0, label %_3000003.0
_3000002.0:
  %_3000005 = getelementptr { { ptr, ptr }, ptr, i32, ptr }, { { ptr, ptr }, ptr, i32, ptr }* %_1, i32 0, i32 3
  %_2000001 = load atomic ptr, ptr %_3000005 unordered, align 8
  %_3000007 = icmp ne ptr %_2000001, null
  br i1 %_3000007, label %_3000006.0, label %_3000003.0
_3000006.0:
  %_3000008 = getelementptr { { ptr, ptr }, i1, ptr, ptr, ptr, ptr, ptr, ptr }, { { ptr, ptr }, i1, ptr, ptr, ptr, ptr, ptr, ptr }* %_2000001, i32 0, i32 7
  %_3000001 = load atomic ptr, ptr %_3000008 unordered, align 8
  %_3000010 = icmp ne ptr %_3000001, null
  br i1 %_3000010, label %_3000009.0, label %_3000003.0
_3000009.0:
  %_2000013 = call dereferenceable_or_null(40) ptr @"_SM16java.lang.ObjectD8getClassL15java.lang.ClassEO"(ptr dereferenceable_or_null(16) %_3000001)
  %_2000014 = icmp eq ptr %_2000013, @"_SM30java.util.AbstractList$$anon$1G4type"
  br i1 %_2000014, label %_2000009.0, label %_2000004.0
_2000004.0:
  %_2000015 = icmp eq ptr %_2000013, @"_SM30java.util.AbstractList$$anon$3G4type"
  br i1 %_2000015, label %_2000009.0, label %_2000005.0
_2000005.0:
  %_2000016 = icmp eq ptr %_2000013, @"_SM19java.util.ArrayListG4type"
  br i1 %_2000016, label %_2000009.0, label %_2000006.0
_2000006.0:
  %_2000017 = icmp eq ptr %_2000013, @"_SM24java.util.Arrays$$anon$2G4type"
  br i1 %_2000017, label %_2000009.0, label %_2000007.0
_2000007.0:
  %_2000018 = icmp eq ptr %_2000013, @"_SM29java.util.Collections$$anon$2G4type"
  br i1 %_2000018, label %_2000009.0, label %_2000008.0
_2000008.0:
  %_2000019 = icmp eq ptr %_2000013, @"_SM35java.util.Collections$ImmutableListG4type"
  br i1 %_2000019, label %_2000010.0, label %_2000009.0
_2000009.0:
  %_2000020 = bitcast ptr %_3000001 to ptr
  %_2000021 = call dereferenceable_or_null(40) ptr @"_SM28java.util.AbstractCollectionD8toStringL16java.lang.StringEO"(ptr dereferenceable_or_null(16) %_2000020)
  br label %_2000011.0
_2000010.0:
  %_2000022 = bitcast ptr %_3000001 to ptr
  %_2000023 = call dereferenceable_or_null(40) ptr @"_SM44java.util.Collections$UnmodifiableCollectionD8toStringL16java.lang.StringEO"(ptr dereferenceable_or_null(32) %_2000022)
  br label %_2000011.0
_2000011.0:
  %_2000024 = phi ptr [%_2000023, %_2000010.0], [%_2000021, %_2000009.0]
  %_3000021 = load ptr, ptr @scalanative_GC_yieldpoint_trap
  %_3000022 = load volatile ptr, ptr %_3000021
  ret ptr %_2000024
_3000003.0:
  call ptr @"_SM34scala.scalanative.runtime.package$D16throwNullPointernEO"(ptr null)
  unreachable
}

define dereferenceable_or_null(16) ptr @"_SM53scala.sys.process.ProcessBuilderImpl$Simple$$Lambda$1D5applyL16java.lang.ObjectEO"(ptr %_1) personality ptr @__gxx_personality_v0 {
_2000000.0:
  %_2000007 = icmp ne ptr %_1, null
  br i1 %_2000007, label %_2000005.0, label %_2000006.0
_2000005.0:
  %_2000008 = getelementptr { { ptr, ptr }, ptr, ptr, ptr }, { { ptr, ptr }, ptr, ptr, ptr }* %_1, i32 0, i32 1
  %_2000001 = load atomic ptr, ptr %_2000008 unordered, align 8
  %_2000009 = getelementptr { { ptr, ptr }, ptr, ptr, ptr }, { { ptr, ptr }, ptr, ptr, ptr }* %_1, i32 0, i32 2
  %_2000002 = load atomic ptr, ptr %_2000009 unordered, align 8
  %_2000010 = getelementptr { { ptr, ptr }, ptr, ptr, ptr }, { { ptr, ptr }, ptr, ptr, ptr }* %_1, i32 0, i32 3
  %_2000003 = load atomic ptr, ptr %_2000010 unordered, align 8
  call void @"_SM43scala.sys.process.ProcessBuilderImpl$SimpleD14$anonfun$run$2L27scala.sys.process.ProcessIOL17java.lang.ProcessuEPT43scala.sys.process.ProcessBuilderImpl$Simple"(ptr dereferenceable_or_null(40) %_2000001, ptr dereferenceable_or_null(48) %_2000002, ptr dereferenceable_or_null(16) %_2000003)
  %_2000023 = load ptr, ptr @scalanative_GC_yieldpoint_trap
  %_2000024 = load volatile ptr, ptr %_2000023
  ret ptr @"_SM36scala.scalanative.runtime.BoxedUnit$G8instance"
_2000006.0:
  call ptr @"_SM34scala.scalanative.runtime.package$D16throwNullPointernEO"(ptr null)
  unreachable
}

define dereferenceable_or_null(16) ptr @"_SM53scala.sys.process.ProcessBuilderImpl$Simple$$Lambda$2D5applyL16java.lang.ObjectEO"(ptr %_1) personality ptr @__gxx_personality_v0 {
_2000000.0:
  %_2000007 = icmp ne ptr %_1, null
  br i1 %_2000007, label %_2000005.0, label %_2000006.0
_2000005.0:
  %_2000008 = getelementptr { { ptr, ptr }, ptr, ptr, ptr }, { { ptr, ptr }, ptr, ptr, ptr }* %_1, i32 0, i32 1
  %_2000001 = load atomic ptr, ptr %_2000008 unordered, align 8
  %_2000009 = getelementptr { { ptr, ptr }, ptr, ptr, ptr }, { { ptr, ptr }, ptr, ptr, ptr }* %_1, i32 0, i32 2
  %_2000002 = load atomic ptr, ptr %_2000009 unordered, align 8
  %_2000010 = getelementptr { { ptr, ptr }, ptr, ptr, ptr }, { { ptr, ptr }, ptr, ptr, ptr }* %_1, i32 0, i32 3
  %_2000003 = load atomic ptr, ptr %_2000010 unordered, align 8
  call void @"_SM43scala.sys.process.ProcessBuilderImpl$SimpleD14$anonfun$run$3L27scala.sys.process.ProcessIOL17java.lang.ProcessuEPT43scala.sys.process.ProcessBuilderImpl$Simple"(ptr dereferenceable_or_null(40) %_2000001, ptr dereferenceable_or_null(48) %_2000002, ptr dereferenceable_or_null(16) %_2000003)
  %_2000023 = load ptr, ptr @scalanative_GC_yieldpoint_trap
  %_2000024 = load volatile ptr, ptr %_2000023
  ret ptr @"_SM36scala.scalanative.runtime.BoxedUnit$G8instance"
_2000006.0:
  call ptr @"_SM34scala.scalanative.runtime.package$D16throwNullPointernEO"(ptr null)
  unreachable
}

define dereferenceable_or_null(16) ptr @"_SM53scala.sys.process.ProcessBuilderImpl$Simple$$Lambda$3D5applyL16java.lang.ObjectEO"(ptr %_1) personality ptr @__gxx_personality_v0 {
_2000000.0:
  %_2000007 = icmp ne ptr %_1, null
  br i1 %_2000007, label %_2000005.0, label %_2000006.0
_2000005.0:
  %_2000008 = getelementptr { { ptr, ptr }, ptr, ptr, ptr }, { { ptr, ptr }, ptr, ptr, ptr }* %_1, i32 0, i32 1
  %_2000001 = load atomic ptr, ptr %_2000008 unordered, align 8
  %_2000009 = getelementptr { { ptr, ptr }, ptr, ptr, ptr }, { { ptr, ptr }, ptr, ptr, ptr }* %_1, i32 0, i32 2
  %_2000002 = load atomic ptr, ptr %_2000009 unordered, align 8
  %_2000010 = getelementptr { { ptr, ptr }, ptr, ptr, ptr }, { { ptr, ptr }, ptr, ptr, ptr }* %_1, i32 0, i32 3
  %_2000003 = load atomic ptr, ptr %_2000010 unordered, align 8
  call void @"_SM43scala.sys.process.ProcessBuilderImpl$SimpleD14$anonfun$run$4L27scala.sys.process.ProcessIOL17java.lang.ProcessuEPT43scala.sys.process.ProcessBuilderImpl$Simple"(ptr dereferenceable_or_null(40) %_2000001, ptr dereferenceable_or_null(48) %_2000002, ptr dereferenceable_or_null(16) %_2000003)
  %_2000023 = load ptr, ptr @scalanative_GC_yieldpoint_trap
  %_2000024 = load volatile ptr, ptr %_2000023
  ret ptr @"_SM36scala.scalanative.runtime.BoxedUnit$G8instance"
_2000006.0:
  call ptr @"_SM34scala.scalanative.runtime.package$D16throwNullPointernEO"(ptr null)
  unreachable
}

define dereferenceable_or_null(40) ptr @"_SM33scala.sys.process.ProcessCreationD16$anonfun$apply$2L24java.lang.ProcessBuilderL12scala.Tuple2L16java.lang.StringEPT33scala.sys.process.ProcessCreation"(ptr %_1, ptr %_2, ptr %_3) personality ptr @__gxx_personality_v0 {
_4000000.0:
  br label %_5000000.0
_5000000.0:
  %_5000002 = icmp ne ptr %_3, null
  br i1 %_5000002, label %_6000000.0, label %_7000000.0
_6000000.0:
  %_13000003 = icmp ne ptr %_3, null
  br i1 %_13000003, label %_13000001.0, label %_13000002.0
_13000001.0:
  %_13000004 = load ptr, ptr %_3
  %_13000005 = getelementptr { { ptr, ptr, i32, i32, ptr }, i32, i32, ptr, [6 x ptr] }, { { ptr, ptr, i32, i32, ptr }, i32, i32, ptr, [6 x ptr] }* %_13000004, i32 0, i32 4, i32 4
  %_6000002 = load ptr, ptr %_13000005
  %_6000003 = call dereferenceable_or_null(16) ptr %_6000002(ptr dereferenceable_or_null(32) %_3)
  %_13000009 = icmp eq ptr %_6000003, null
  br i1 %_13000009, label %_13000007.0, label %_13000006.0
_13000006.0:
  %_13000010 = load ptr, ptr %_6000003
  %_13000011 = icmp eq ptr %_13000010, @"_SM16java.lang.StringG4type"
  br i1 %_13000011, label %_13000007.0, label %_13000008.0
_13000007.0:
  %_13000012 = load ptr, ptr %_3
  %_13000013 = getelementptr { { ptr, ptr, i32, i32, ptr }, i32, i32, ptr, [6 x ptr] }, { { ptr, ptr, i32, i32, ptr }, i32, i32, ptr, [6 x ptr] }* %_13000012, i32 0, i32 4, i32 3
  %_6000006 = load ptr, ptr %_13000013
  %_6000007 = call dereferenceable_or_null(16) ptr %_6000006(ptr dereferenceable_or_null(32) %_3)
  %_13000016 = icmp eq ptr %_6000007, null
  br i1 %_13000016, label %_13000015.0, label %_13000014.0
_13000014.0:
  %_13000017 = load ptr, ptr %_6000007
  %_13000018 = icmp eq ptr %_13000017, @"_SM16java.lang.StringG4type"
  br i1 %_13000018, label %_13000015.0, label %_13000008.0
_13000015.0:
  %_13000020 = icmp ne ptr %_2, null
  br i1 %_13000020, label %_13000019.0, label %_13000002.0
_13000019.0:
  %_13000021 = getelementptr { { ptr, ptr }, i1, ptr, ptr, ptr, ptr, ptr, ptr }, { { ptr, ptr }, i1, ptr, ptr, ptr, ptr, ptr, ptr }* %_2, i32 0, i32 6
  %_8000001 = load atomic ptr, ptr %_13000021 unordered, align 8
  %_6000009 = call dereferenceable_or_null(16) ptr @"_SM17java.util.HashMapD3putL16java.lang.ObjectL16java.lang.ObjectL16java.lang.ObjectEO"(ptr dereferenceable_or_null(40) %_8000001, ptr dereferenceable_or_null(40) %_6000003, ptr dereferenceable_or_null(40) %_6000007)
  %_13000024 = icmp eq ptr %_6000009, null
  br i1 %_13000024, label %_13000023.0, label %_13000022.0
_13000022.0:
  %_13000025 = load ptr, ptr %_6000009
  %_13000026 = icmp eq ptr %_13000025, @"_SM16java.lang.StringG4type"
  br i1 %_13000026, label %_13000023.0, label %_13000008.0
_13000023.0:
  br label %_9000000.0
_7000000.0:
  br label %_10000000.0
_9000000.0:
  %_13000058 = load ptr, ptr @scalanative_GC_yieldpoint_trap
  %_13000059 = load volatile ptr, ptr %_13000058
  ret ptr %_6000009
_10000000.0:
  br label %_12000000.0
_12000000.0:
  %_12000001 = call dereferenceable_or_null(72) ptr @"scalanative_GC_alloc_small"(ptr @"_SM16scala.MatchErrorG4type", i64 72)
  %_13000029 = getelementptr { { ptr, ptr }, ptr, ptr, ptr, i1, i1 }, { { ptr, ptr }, ptr, ptr, ptr, i1, i1 }* %_12000001, i32 0, i32 5
  %_13000030 = zext i1 true to i8
  store atomic i8 %_13000030, ptr%_13000029 unordered, align 1
  %_13000032 = getelementptr { { ptr, ptr }, ptr, ptr, ptr, i1, i1 }, { { ptr, ptr }, ptr, ptr, ptr, i1, i1 }* %_12000001, i32 0, i32 4
  %_13000033 = zext i1 true to i8
  store atomic i8 %_13000033, ptr%_13000032 unordered, align 1
  %_13000035 = getelementptr { { ptr, ptr }, ptr, ptr, ptr, i1, i1, ptr, ptr, i1 }, { { ptr, ptr }, ptr, ptr, ptr, i1, i1, ptr, ptr, i1 }* %_12000001, i32 0, i32 6
  store atomic ptr %_3, ptr%_13000035 unordered, align 8
  %_12000005 = call dereferenceable_or_null(48) ptr @"_SM19java.lang.ThrowableD16fillInStackTraceL19java.lang.ThrowableEO"(ptr nonnull dereferenceable(72) %_12000001)
  br label %_13000000.0
_13000000.0:
  call ptr @"scalanative_throw"(ptr nonnull dereferenceable(72) %_12000001)
  unreachable
_13000002.0:
  call ptr @"_SM34scala.scalanative.runtime.package$D16throwNullPointernEO"(ptr null)
  unreachable
_13000008.0:
  %_13000038 = phi ptr [%_6000003, %_13000006.0], [%_6000007, %_13000014.0], [%_6000009, %_13000022.0]
  %_13000039 = phi ptr [@"_SM16java.lang.StringG4type", %_13000006.0], [@"_SM16java.lang.StringG4type", %_13000014.0], [@"_SM16java.lang.StringG4type", %_13000022.0]
  %_13000040 = load ptr, ptr %_13000038
  call ptr @"_SM34scala.scalanative.runtime.package$D14throwClassCastR_R_nEO"(ptr null, ptr %_13000040, ptr %_13000039)
  unreachable
}

define nonnull dereferenceable(40) ptr @"_SM33scala.sys.process.ProcessCreationD5applyL20scala.collection.SeqL12scala.OptionL30scala.collection.immutable.SeqL32scala.sys.process.ProcessBuilderEO"(ptr %_1, ptr %_2, ptr %_3, ptr %_4) personality ptr @__gxx_personality_v0 {
_5000000.0:
  %_35000005 = icmp ne ptr %_1, null
  br i1 %_35000005, label %_35000003.0, label %_35000004.0
_35000003.0:
  %_5000002 = call dereferenceable_or_null(136) ptr @"_SM23scala.reflect.ClassTag$G4load"()
  %_5000003 = call dereferenceable_or_null(16) ptr @"_SM23scala.reflect.ClassTag$D5applyL15java.lang.ClassL22scala.reflect.ClassTagEO"(ptr nonnull dereferenceable(136) %_5000002, ptr @"_SM16java.lang.StringG4type")
  %_35000007 = icmp ne ptr %_2, null
  br i1 %_35000007, label %_35000006.0, label %_35000004.0
_35000006.0:
  %_35000008 = load ptr, ptr %_2
  %_35000009 = getelementptr { ptr, ptr, i32, i32, ptr }, { ptr, ptr, i32, i32, ptr }* %_35000008, i32 0, i32 3
  %_35000010 = load i32, ptr %_35000009
  %_35000011 = getelementptr ptr, ptr @"_SM22__scalanative_metadataG14dispatch_table", i32 17063
  %_35000012 = getelementptr ptr, ptr %_35000011, i32 %_35000010
  %_5000005 = load ptr, ptr %_35000012
  %_5000006 = call dereferenceable_or_null(16) ptr %_5000005(ptr dereferenceable_or_null(16) %_2, ptr dereferenceable_or_null(16) %_5000003)
  %_35000016 = icmp eq ptr %_5000006, null
  br i1 %_35000016, label %_35000014.0, label %_35000013.0
_35000013.0:
  %_35000017 = load ptr, ptr %_5000006
  %_35000018 = icmp eq ptr %_35000017, @"_SM37scala.scalanative.runtime.ObjectArrayG4type"
  br i1 %_35000018, label %_35000014.0, label %_35000015.0
_35000014.0:
  %_6000003 = call nonnull dereferenceable(24) ptr @"_SM17java.util.Arrays$D6asListLAL16java.lang.Object_L14java.util.ListEO"(ptr nonnull dereferenceable(16) @"_SM17java.util.Arrays$G8instance", ptr dereferenceable_or_null(24) %_5000006)
  %_6000004 = call dereferenceable_or_null(72) ptr @"scalanative_GC_alloc_small"(ptr @"_SM24java.lang.ProcessBuilderG4type", i64 72)
  %_35000020 = getelementptr { { ptr, ptr }, i1, ptr, ptr, ptr, ptr, ptr, ptr }, { { ptr, ptr }, i1, ptr, ptr, ptr, ptr, ptr, ptr }* %_6000004, i32 0, i32 7
  store atomic ptr %_6000003, ptr%_35000020 unordered, align 8
  %_6000006 = call nonnull dereferenceable(32) ptr @"_SM24java.lang.ProcessBuilderD16defaultDirectoryL12java.io.FileEPT24java.lang.ProcessBuilder"(ptr nonnull dereferenceable(72) %_6000004)
  %_35000022 = getelementptr { { ptr, ptr }, i1, ptr, ptr, ptr, ptr, ptr, ptr }, { { ptr, ptr }, i1, ptr, ptr, ptr, ptr, ptr, ptr }* %_6000004, i32 0, i32 5
  store atomic ptr %_6000006, ptr%_35000022 unordered, align 8
  %_6000008 = call dereferenceable_or_null(24) ptr @"_SM18java.lang.EnvVars$G4load"()
  %_35000023 = getelementptr { { ptr, ptr }, ptr }, { { ptr, ptr }, ptr }* %_6000008, i32 0, i32 1
  %_6000009 = load atomic ptr, ptr %_35000023 unordered, align 8
  %_35000025 = icmp ne ptr %_6000009, null
  br i1 %_35000025, label %_35000024.0, label %_35000004.0
_35000024.0:
  %_35000026 = load ptr, ptr %_6000009
  %_35000027 = getelementptr { ptr, ptr, i32, i32, ptr }, { ptr, ptr, i32, i32, ptr }* %_35000026, i32 0, i32 3
  %_35000028 = load i32, ptr %_35000027
  %_35000029 = getelementptr ptr, ptr @"_SM22__scalanative_metadataG14dispatch_table", i32 21721
  %_35000030 = getelementptr ptr, ptr %_35000029, i32 %_35000028
  %_6000011 = load ptr, ptr %_35000030
  %_6000012 = call i32 %_6000011(ptr dereferenceable_or_null(16) %_6000009)
  %_6000014 = icmp slt i32 %_6000012, 0
  br i1 %_6000014, label %_7000000.0, label %_8000000.0
_8000000.0:
  br label %_9000000.0
_9000000.0:
  br label %_10000000.0
_10000000.0:
  br label %_11000000.0
_11000000.0:
  %_11000003 = sub i32 %_6000012, 1
  %_11000004 = icmp sgt i32 %_11000003, 4
  br i1 %_11000004, label %_12000000.0, label %_13000000.0
_12000000.0:
  br label %_14000000.0
_13000000.0:
  br label %_14000000.0
_14000000.0:
  %_14000001 = phi i32 [4, %_13000000.0], [%_11000003, %_12000000.0]
  %_14000002 = call i32 @"llvm.ctlz.i32"(i32 %_14000001, i1 false)
  %_35000031 = and i32 %_14000002, 31
  %_14000007 = lshr i32 -2147483648, %_35000031
  %_14000008 = and i32 %_14000007, %_14000001
  %_35000032 = and i32 1, 31
  %_14000009 = shl i32 %_14000008, %_35000032
  %_14000010 = icmp slt i32 %_14000009, 1073741824
  br i1 %_14000010, label %_15000000.0, label %_16000000.0
_15000000.0:
  br label %_17000000.0
_16000000.0:
  br label %_17000000.0
_7000000.0:
  br label %_18000000.0
_18000000.0:
  %_18000004 = call dereferenceable_or_null(48) ptr @"scalanative_GC_alloc_small"(ptr @"_SM34java.lang.IllegalArgumentExceptionG4type", i64 48)
  %_35000034 = getelementptr { { ptr, ptr }, ptr, ptr, ptr, i1, i1 }, { { ptr, ptr }, ptr, ptr, ptr, i1, i1 }* %_18000004, i32 0, i32 5
  %_35000035 = zext i1 true to i8
  store atomic i8 %_35000035, ptr%_35000034 unordered, align 1
  %_35000037 = getelementptr { { ptr, ptr }, ptr, ptr, ptr, i1, i1 }, { { ptr, ptr }, ptr, ptr, ptr, i1, i1 }* %_18000004, i32 0, i32 4
  %_35000038 = zext i1 true to i8
  store atomic i8 %_35000038, ptr%_35000037 unordered, align 1
  %_35000040 = getelementptr { { ptr, ptr }, ptr, ptr, ptr, i1, i1 }, { { ptr, ptr }, ptr, ptr, ptr, i1, i1 }* %_18000004, i32 0, i32 3
  store atomic ptr @"_SM7__constG2-73", ptr%_35000040 unordered, align 8
  %_18000008 = call dereferenceable_or_null(48) ptr @"_SM19java.lang.ThrowableD16fillInStackTraceL19java.lang.ThrowableEO"(ptr nonnull dereferenceable(48) %_18000004)
  br label %_19000000.0
_19000000.0:
  call ptr @"scalanative_throw"(ptr nonnull dereferenceable(48) %_18000004)
  unreachable
_17000000.0:
  %_17000001 = phi i32 [1073741824, %_16000000.0], [%_14000009, %_15000000.0]
  %_17000002 = call dereferenceable_or_null(24) ptr @"_SM38scala.scalanative.runtime.ObjectArray$D5allociL37scala.scalanative.runtime.ObjectArrayEO"(ptr @"_SM38scala.scalanative.runtime.ObjectArray$G8instance", i32 %_17000001)
  %_35000043 = getelementptr { ptr, ptr, i32, i32 }, { ptr, ptr, i32, i32 }* %_17000002, i32 0, i32 2
  %_17000003 = load i32, ptr %_35000043
  %_17000008 = call dereferenceable_or_null(40) ptr @"scalanative_GC_alloc_small"(ptr @"_SM17java.util.HashMapG4type", i64 40)
  %_35000045 = getelementptr { { ptr, ptr }, ptr, float, i32, i32 }, { { ptr, ptr }, ptr, float, i32, i32 }* %_17000008, i32 0, i32 1
  store atomic ptr %_17000002, ptr%_35000045 unordered, align 8
  %_17000010 = sitofp i32 %_17000003 to double
  %_17000011 = fmul double %_17000010, 0x3fe8000000000000
  %_35000053 = fcmp une double %_17000011, %_17000011
  br i1 %_35000053, label %_35000046.0, label %_35000047.0
_35000046.0:
  br label %_35000052.0
_35000047.0:
  %_35000054 = fcmp ole double %_17000011, 0xc1e0000000000000
  br i1 %_35000054, label %_35000048.0, label %_35000049.0
_35000048.0:
  br label %_35000052.0
_35000049.0:
  %_35000055 = fcmp oge double %_17000011, 0x41dfffffffc00000
  br i1 %_35000055, label %_35000050.0, label %_35000051.0
_35000050.0:
  br label %_35000052.0
_35000051.0:
  %_35000056 = fptosi double %_17000011 to i32
  br label %_35000052.0
_35000052.0:
  %_17000012 = phi i32 [%_35000056, %_35000051.0], [2147483647, %_35000050.0], [-2147483648, %_35000048.0], [zeroinitializer, %_35000046.0]
  %_35000058 = getelementptr { { ptr, ptr }, ptr, float, i32, i32 }, { { ptr, ptr }, ptr, float, i32, i32 }* %_17000008, i32 0, i32 3
  store atomic i32 %_17000012, ptr%_35000058 unordered, align 4
  %_35000060 = getelementptr { { ptr, ptr }, ptr, float, i32, i32 }, { { ptr, ptr }, ptr, float, i32, i32 }* %_17000008, i32 0, i32 2
  store atomic float 0x3fe8000000000000, ptr%_35000060 unordered, align 4
  call void @"_SM17java.util.HashMapD6putAllL13java.util.MapuEO"(ptr nonnull dereferenceable(40) %_17000008, ptr dereferenceable_or_null(16) %_6000009)
  %_35000063 = getelementptr { { ptr, ptr }, i1, ptr, ptr, ptr, ptr, ptr, ptr }, { { ptr, ptr }, i1, ptr, ptr, ptr, ptr, ptr, ptr }* %_6000004, i32 0, i32 6
  store atomic ptr %_17000008, ptr%_35000063 unordered, align 8
  %_17000017 = call dereferenceable_or_null(32) ptr @"_SM34java.lang.ProcessBuilder$Redirect$G4load"()
  %_35000064 = getelementptr { { ptr, ptr }, ptr, ptr }, { { ptr, ptr }, ptr, ptr }* %_17000017, i32 0, i32 1
  %_17000018 = load atomic ptr, ptr %_35000064 unordered, align 8
  %_35000066 = getelementptr { { ptr, ptr }, i1, ptr, ptr, ptr, ptr, ptr, ptr }, { { ptr, ptr }, i1, ptr, ptr, ptr, ptr, ptr, ptr }* %_6000004, i32 0, i32 2
  store atomic ptr %_17000018, ptr%_35000066 unordered, align 8
  %_35000067 = getelementptr { { ptr, ptr }, ptr, ptr }, { { ptr, ptr }, ptr, ptr }* %_17000017, i32 0, i32 1
  %_17000020 = load atomic ptr, ptr %_35000067 unordered, align 8
  %_35000069 = getelementptr { { ptr, ptr }, i1, ptr, ptr, ptr, ptr, ptr, ptr }, { { ptr, ptr }, i1, ptr, ptr, ptr, ptr, ptr, ptr }* %_6000004, i32 0, i32 4
  store atomic ptr %_17000020, ptr%_35000069 unordered, align 8
  %_35000070 = getelementptr { { ptr, ptr }, ptr, ptr }, { { ptr, ptr }, ptr, ptr }* %_17000017, i32 0, i32 1
  %_17000022 = load atomic ptr, ptr %_35000070 unordered, align 8
  %_35000072 = getelementptr { { ptr, ptr }, i1, ptr, ptr, ptr, ptr, ptr, ptr }, { { ptr, ptr }, i1, ptr, ptr, ptr, ptr, ptr, ptr }* %_6000004, i32 0, i32 3
  store atomic ptr %_17000022, ptr%_35000072 unordered, align 8
  %_35000074 = getelementptr { { ptr, ptr }, i1, ptr, ptr, ptr, ptr, ptr, ptr }, { { ptr, ptr }, i1, ptr, ptr, ptr, ptr, ptr, ptr }* %_6000004, i32 0, i32 1
  %_35000075 = zext i1 false to i8
  store atomic i8 %_35000075, ptr%_35000074 unordered, align 1
  %_21000005 = icmp eq ptr %_3, @"_SM11scala.None$G8instance"
  %_21000006 = xor i1 %_21000005, true
  br i1 %_21000006, label %_22000000.0, label %_23000000.0
_22000000.0:
  %_22000001 = call dereferenceable_or_null(40) ptr @"_SM16java.lang.ObjectD8getClassL15java.lang.ClassEO"(ptr dereferenceable_or_null(16) %_3)
  %_22000003 = icmp eq ptr %_22000001, @"_SM11scala.None$G4type"
  br i1 %_22000003, label %_24000000.0, label %_25000000.0
_25000000.0:
  %_30000001 = bitcast ptr %_3 to ptr
  %_35000077 = icmp ne ptr %_30000001, null
  br i1 %_35000077, label %_35000076.0, label %_35000004.0
_35000076.0:
  %_35000078 = getelementptr { { ptr, ptr }, ptr }, { { ptr, ptr }, ptr }* %_30000001, i32 0, i32 1
  %_30000002 = load atomic ptr, ptr %_35000078 unordered, align 8
  br label %_31000000.0
_31000000.0:
  %_32000002 = bitcast ptr %_30000002 to ptr
  call void @"_SM24java.lang.ProcessBuilderD20$anonfun$directory$1L12java.io.FileuEPT24java.lang.ProcessBuilder"(ptr nonnull dereferenceable(72) %_6000004, ptr dereferenceable_or_null(32) %_32000002)
  br label %_33000000.0
_23000000.0:
  br label %_33000000.0
_24000000.0:
  br label %_28000000.0
_28000000.0:
  %_28000001 = call dereferenceable_or_null(48) ptr @"scalanative_GC_alloc_small"(ptr @"_SM32java.util.NoSuchElementExceptionG4type", i64 48)
  %_35000081 = getelementptr { { ptr, ptr }, ptr, ptr, ptr, i1, i1 }, { { ptr, ptr }, ptr, ptr, ptr, i1, i1 }* %_28000001, i32 0, i32 5
  %_35000082 = zext i1 true to i8
  store atomic i8 %_35000082, ptr%_35000081 unordered, align 1
  %_35000084 = getelementptr { { ptr, ptr }, ptr, ptr, ptr, i1, i1 }, { { ptr, ptr }, ptr, ptr, ptr, i1, i1 }* %_28000001, i32 0, i32 4
  %_35000085 = zext i1 true to i8
  store atomic i8 %_35000085, ptr%_35000084 unordered, align 1
  %_35000087 = getelementptr { { ptr, ptr }, ptr, ptr, ptr, i1, i1 }, { { ptr, ptr }, ptr, ptr, ptr, i1, i1 }* %_28000001, i32 0, i32 3
  store atomic ptr @"_SM7__constG2-75", ptr%_35000087 unordered, align 8
  %_28000005 = call dereferenceable_or_null(48) ptr @"_SM19java.lang.ThrowableD16fillInStackTraceL19java.lang.ThrowableEO"(ptr nonnull dereferenceable(48) %_28000001)
  br label %_29000000.0
_29000000.0:
  call ptr @"scalanative_throw"(ptr nonnull dereferenceable(48) %_28000001)
  unreachable
_33000000.0:
  %_35000090 = icmp ne ptr %_4, null
  br i1 %_35000090, label %_35000089.0, label %_35000004.0
_35000089.0:
  %_35000091 = load ptr, ptr %_4
  %_35000092 = getelementptr { ptr, ptr, i32, i32, ptr }, { ptr, ptr, i32, i32, ptr }* %_35000091, i32 0, i32 3
  %_35000093 = load i32, ptr %_35000092
  %_35000094 = getelementptr ptr, ptr @"_SM22__scalanative_metadataG14dispatch_table", i32 18502
  %_35000095 = getelementptr ptr, ptr %_35000094, i32 %_35000093
  %_5000011 = load ptr, ptr %_35000095
  %_5000012 = call dereferenceable_or_null(32) ptr @"scalanative_GC_alloc_small"(ptr @"_SM43scala.sys.process.ProcessCreation$$Lambda$2G4type", i64 32)
  %_35000097 = getelementptr { { ptr, ptr }, ptr, ptr }, { { ptr, ptr }, ptr, ptr }* %_5000012, i32 0, i32 2
  store atomic ptr %_6000004, ptr%_35000097 unordered, align 8
  %_35000099 = getelementptr { { ptr, ptr }, ptr, ptr }, { { ptr, ptr }, ptr, ptr }* %_5000012, i32 0, i32 1
  store atomic ptr %_1, ptr%_35000099 unordered, align 8
  call void %_5000011(ptr dereferenceable_or_null(16) %_4, ptr nonnull dereferenceable(32) %_5000012)
  %_35000001 = bitcast ptr %_1 to ptr
  %_35000002 = call nonnull dereferenceable(40) ptr @"_SM33scala.sys.process.ProcessCreationD5applyL24java.lang.ProcessBuilderL32scala.sys.process.ProcessBuilderEO"(ptr dereferenceable_or_null(24) %_35000001, ptr nonnull dereferenceable(72) %_6000004)
  %_35000215 = load ptr, ptr @scalanative_GC_yieldpoint_trap
  %_35000216 = load volatile ptr, ptr %_35000215
  ret ptr %_35000002
_35000004.0:
  call ptr @"_SM34scala.scalanative.runtime.package$D16throwNullPointernEO"(ptr null)
  unreachable
_35000015.0:
  %_35000103 = phi ptr [%_5000006, %_35000013.0]
  %_35000104 = phi ptr [@"_SM37scala.scalanative.runtime.ObjectArrayG4type", %_35000013.0]
  %_35000105 = load ptr, ptr %_35000103
  call ptr @"_SM34scala.scalanative.runtime.package$D14throwClassCastR_R_nEO"(ptr null, ptr %_35000105, ptr %_35000104)
  unreachable
}

define nonnull dereferenceable(40) ptr @"_SM33scala.sys.process.ProcessCreationD5applyL24java.lang.ProcessBuilderL32scala.sys.process.ProcessBuilderEO"(ptr %_1, ptr %_2) personality ptr @__gxx_personality_v0 {
_3000000.0:
  %_4000003 = icmp eq ptr @"_SM33scala.sys.process.ProcessBuilder$G8instance", null
  br i1 %_4000003, label %_5000000.0, label %_6000000.0
_6000000.0:
  br label %_7000000.0
_5000000.0:
  %_7000003 = icmp ne ptr null, null
  br i1 %_7000003, label %_7000001.0, label %_7000002.0
_7000001.0:
  call ptr @"scalanative_throw"(ptr null)
  unreachable
_7000000.0:
  %_3000003 = call dereferenceable_or_null(40) ptr @"scalanative_GC_alloc_small"(ptr @"_SM43scala.sys.process.ProcessBuilderImpl$SimpleG4type", i64 40)
  %_7000006 = getelementptr { { ptr, ptr }, ptr, i32 }, { { ptr, ptr }, ptr, i32 }* %_3000003, i32 0, i32 2
  store atomic i32 4096, ptr%_7000006 unordered, align 4
  %_7000008 = getelementptr { { ptr, ptr }, ptr, i32 }, { { ptr, ptr }, ptr, i32 }* %_3000003, i32 0, i32 1
  store atomic ptr @"_SM33scala.sys.process.ProcessBuilder$G8instance", ptr%_7000008 unordered, align 8
  %_7000010 = getelementptr { { ptr, ptr }, ptr, i32, ptr }, { { ptr, ptr }, ptr, i32, ptr }* %_3000003, i32 0, i32 3
  store atomic ptr %_2, ptr%_7000010 unordered, align 8
  %_7000023 = load ptr, ptr @scalanative_GC_yieldpoint_trap
  %_7000024 = load volatile ptr, ptr %_7000023
  ret ptr %_3000003
_7000002.0:
  call ptr @"_SM34scala.scalanative.runtime.package$D16throwNullPointernEO"(ptr null)
  unreachable
}

define dereferenceable_or_null(40) ptr @"_SM43scala.sys.process.ProcessCreation$$Lambda$2D5applyL16java.lang.ObjectL16java.lang.ObjectEO"(ptr %_1, ptr %_2) personality ptr @__gxx_personality_v0 {
_3000000.0:
  %_3000008 = icmp ne ptr %_1, null
  br i1 %_3000008, label %_3000006.0, label %_3000007.0
_3000006.0:
  %_3000009 = getelementptr { { ptr, ptr }, ptr, ptr }, { { ptr, ptr }, ptr, ptr }* %_1, i32 0, i32 1
  %_3000002 = load atomic ptr, ptr %_3000009 unordered, align 8
  %_3000010 = getelementptr { { ptr, ptr }, ptr, ptr }, { { ptr, ptr }, ptr, ptr }* %_1, i32 0, i32 2
  %_3000003 = load atomic ptr, ptr %_3000010 unordered, align 8
  %_3000004 = bitcast ptr %_2 to ptr
  %_3000005 = call dereferenceable_or_null(40) ptr @"_SM33scala.sys.process.ProcessCreationD16$anonfun$apply$2L24java.lang.ProcessBuilderL12scala.Tuple2L16java.lang.StringEPT33scala.sys.process.ProcessCreation"(ptr dereferenceable_or_null(16) %_3000002, ptr dereferenceable_or_null(72) %_3000003, ptr dereferenceable_or_null(32) %_3000004)
  %_3000019 = load ptr, ptr @scalanative_GC_yieldpoint_trap
  %_3000020 = load volatile ptr, ptr %_3000019
  ret ptr %_3000005
_3000007.0:
  call ptr @"_SM34scala.scalanative.runtime.package$D16throwNullPointernEO"(ptr null)
  unreachable
}

define i32 @"_SM43scala.sys.process.ProcessImpl$SimpleProcessD9exitValueiEO"(ptr %_1) personality ptr @__gxx_personality_v0 {
_2.0:
  br label %_5.0
_5.0:
  %_37 = icmp ne ptr %_1, null
  br i1 %_37, label %_34.0, label %_35.0
_34.0:
  %_39 = getelementptr { { ptr, ptr }, ptr, ptr, ptr, ptr }, { { ptr, ptr }, ptr, ptr, ptr, ptr }* %_1, i32 0, i32 2
  %_10 = load atomic ptr, ptr %_39 unordered, align 8
  %_45 = icmp ne ptr %_10, null
  br i1 %_45, label %_42.0, label %_43.0
_42.0:
  %_47 = load ptr, ptr %_10
  %_49 = getelementptr { { ptr, ptr, i32, i32, ptr }, i32, i32, ptr, [5 x ptr] }, { { ptr, ptr, i32, i32, ptr }, i32, i32, ptr, [5 x ptr] }* %_47, i32 0, i32 4, i32 3
  %_12 = load ptr, ptr %_49
  %_14 = invoke i32 %_12(ptr dereferenceable_or_null(16) %_10) to label %_42.1 unwind label %_52.landingpad
_42.1:
  br label %_16.0
_3.0:
  %_7 = phi ptr [%_13, %_51.0], [%_11, %_41.0], [%_9, %_33.0]
  br label %_19.0
_16.0:
  call void @"_SM43scala.sys.process.ProcessImpl$SimpleProcessD9interruptuEPT43scala.sys.process.ProcessImpl$SimpleProcess"(ptr dereferenceable_or_null(48) %_1)
  br label %_6.0
_19.0:
  call void @"_SM43scala.sys.process.ProcessImpl$SimpleProcessD9interruptuEPT43scala.sys.process.ProcessImpl$SimpleProcess"(ptr dereferenceable_or_null(48) %_1)
  %_57 = icmp ne ptr %_7, null
  br i1 %_57, label %_55.0, label %_56.0
_55.0:
  call ptr @"scalanative_throw"(ptr dereferenceable_or_null(16) %_7)
  unreachable
_6.0:
  %_8 = phi i32 [%_14, %_16.0]
  %_59 = getelementptr { { ptr, ptr }, ptr, ptr, ptr, ptr }, { { ptr, ptr }, ptr, ptr, ptr, ptr }* %_1, i32 0, i32 1
  %_25 = load atomic ptr, ptr %_59 unordered, align 8
  %_26 = call dereferenceable_or_null(24) ptr @"scalanative_GC_alloc_small"(ptr @"_SM53scala.sys.process.ProcessImpl$SimpleProcess$$Lambda$1G4type", i64 24)
  call void @"_SM53scala.sys.process.ProcessImpl$SimpleProcess$$Lambda$1RL43scala.sys.process.ProcessImpl$SimpleProcessE"(ptr nonnull dereferenceable(24) %_26, ptr dereferenceable_or_null(48) %_1)
  %_62 = icmp ne ptr %_25, null
  br i1 %_62, label %_61.0, label %_56.0
_61.0:
  call void @"_SM31scala.collection.immutable.ListD7foreachL15scala.Function1uEO"(ptr dereferenceable_or_null(16) %_25, ptr nonnull dereferenceable(24) %_26)
  %_64 = getelementptr { { ptr, ptr }, ptr, ptr, ptr, ptr }, { { ptr, ptr }, ptr, ptr, ptr, ptr }* %_1, i32 0, i32 2
  %_30 = load atomic ptr, ptr %_64 unordered, align 8
  %_66 = icmp ne ptr %_30, null
  br i1 %_66, label %_65.0, label %_56.0
_65.0:
  %_67 = load ptr, ptr %_30
  %_68 = getelementptr { { ptr, ptr, i32, i32, ptr }, i32, i32, ptr, [5 x ptr] }, { { ptr, ptr, i32, i32, ptr }, i32, i32, ptr, [5 x ptr] }* %_67, i32 0, i32 4, i32 4
  %_31 = load ptr, ptr %_68
  %_32 = call i32 %_31(ptr dereferenceable_or_null(16) %_30)
  %_98 = load ptr, ptr @scalanative_GC_yieldpoint_trap
  %_99 = load volatile ptr, ptr %_98
  ret i32 %_32
_35.0:
  invoke ptr @"_SM34scala.scalanative.runtime.package$D16throwNullPointernEO"(ptr null) to label %_35.1 unwind label %_70.landingpad
_35.1:
  unreachable
_43.0:
  invoke ptr @"_SM34scala.scalanative.runtime.package$D16throwNullPointernEO"(ptr null) to label %_43.1 unwind label %_72.landingpad
_43.1:
  unreachable
_56.0:
  call ptr @"_SM34scala.scalanative.runtime.package$D16throwNullPointernEO"(ptr null)
  unreachable
_33.0:
  %_9 = phi ptr [%_36, %_36.landingpad.succ], [%_70, %_70.landingpad.succ], [%_38, %_38.landingpad.succ], [%_40, %_40.landingpad.succ]
  br label %_3.0
_41.0:
  %_11 = phi ptr [%_44, %_44.landingpad.succ], [%_72, %_72.landingpad.succ], [%_46, %_46.landingpad.succ], [%_48, %_48.landingpad.succ], [%_50, %_50.landingpad.succ]
  br label %_3.0
_51.0:
  %_13 = phi ptr [%_52, %_52.landingpad.succ]
  br label %_3.0
_36.landingpad:
  %_100 = landingpad { ptr, i32 } catch ptr @_ZTIN11scalanative16ExceptionWrapperE
  %_101 = extractvalue { ptr, i32 } %_100, 0
  %_102 = extractvalue { ptr, i32 } %_100, 1
  %_103 = call i32 @llvm.eh.typeid.for(ptr @_ZTIN11scalanative16ExceptionWrapperE)
  %_104 = icmp eq i32 %_102, %_103
  br i1 %_104, label %_36.landingpad.succ, label %_36.landingpad.fail
_36.landingpad.succ:
  %_105 = call ptr @__cxa_begin_catch(ptr %_101)
  %_107 = getelementptr ptr, ptr %_105, i32 1
  %_36 = load ptr, ptr %_107
  call void @__cxa_end_catch()br label %_33.0
_36.landingpad.fail:
  resume { ptr, i32 } %_100
_38.landingpad:
  %_108 = landingpad { ptr, i32 } catch ptr @_ZTIN11scalanative16ExceptionWrapperE
  %_109 = extractvalue { ptr, i32 } %_108, 0
  %_110 = extractvalue { ptr, i32 } %_108, 1
  %_111 = call i32 @llvm.eh.typeid.for(ptr @_ZTIN11scalanative16ExceptionWrapperE)
  %_112 = icmp eq i32 %_110, %_111
  br i1 %_112, label %_38.landingpad.succ, label %_38.landingpad.fail
_38.landingpad.succ:
  %_113 = call ptr @__cxa_begin_catch(ptr %_109)
  %_115 = getelementptr ptr, ptr %_113, i32 1
  %_38 = load ptr, ptr %_115
  call void @__cxa_end_catch()br label %_33.0
_38.landingpad.fail:
  resume { ptr, i32 } %_108
_40.landingpad:
  %_116 = landingpad { ptr, i32 } catch ptr @_ZTIN11scalanative16ExceptionWrapperE
  %_117 = extractvalue { ptr, i32 } %_116, 0
  %_118 = extractvalue { ptr, i32 } %_116, 1
  %_119 = call i32 @llvm.eh.typeid.for(ptr @_ZTIN11scalanative16ExceptionWrapperE)
  %_120 = icmp eq i32 %_118, %_119
  br i1 %_120, label %_40.landingpad.succ, label %_40.landingpad.fail
_40.landingpad.succ:
  %_121 = call ptr @__cxa_begin_catch(ptr %_117)
  %_123 = getelementptr ptr, ptr %_121, i32 1
  %_40 = load ptr, ptr %_123
  call void @__cxa_end_catch()br label %_33.0
_40.landingpad.fail:
  resume { ptr, i32 } %_116
_44.landingpad:
  %_124 = landingpad { ptr, i32 } catch ptr @_ZTIN11scalanative16ExceptionWrapperE
  %_125 = extractvalue { ptr, i32 } %_124, 0
  %_126 = extractvalue { ptr, i32 } %_124, 1
  %_127 = call i32 @llvm.eh.typeid.for(ptr @_ZTIN11scalanative16ExceptionWrapperE)
  %_128 = icmp eq i32 %_126, %_127
  br i1 %_128, label %_44.landingpad.succ, label %_44.landingpad.fail
_44.landingpad.succ:
  %_129 = call ptr @__cxa_begin_catch(ptr %_125)
  %_131 = getelementptr ptr, ptr %_129, i32 1
  %_44 = load ptr, ptr %_131
  call void @__cxa_end_catch()br label %_41.0
_44.landingpad.fail:
  resume { ptr, i32 } %_124
_46.landingpad:
  %_132 = landingpad { ptr, i32 } catch ptr @_ZTIN11scalanative16ExceptionWrapperE
  %_133 = extractvalue { ptr, i32 } %_132, 0
  %_134 = extractvalue { ptr, i32 } %_132, 1
  %_135 = call i32 @llvm.eh.typeid.for(ptr @_ZTIN11scalanative16ExceptionWrapperE)
  %_136 = icmp eq i32 %_134, %_135
  br i1 %_136, label %_46.landingpad.succ, label %_46.landingpad.fail
_46.landingpad.succ:
  %_137 = call ptr @__cxa_begin_catch(ptr %_133)
  %_139 = getelementptr ptr, ptr %_137, i32 1
  %_46 = load ptr, ptr %_139
  call void @__cxa_end_catch()br label %_41.0
_46.landingpad.fail:
  resume { ptr, i32 } %_132
_48.landingpad:
  %_140 = landingpad { ptr, i32 } catch ptr @_ZTIN11scalanative16ExceptionWrapperE
  %_141 = extractvalue { ptr, i32 } %_140, 0
  %_142 = extractvalue { ptr, i32 } %_140, 1
  %_143 = call i32 @llvm.eh.typeid.for(ptr @_ZTIN11scalanative16ExceptionWrapperE)
  %_144 = icmp eq i32 %_142, %_143
  br i1 %_144, label %_48.landingpad.succ, label %_48.landingpad.fail
_48.landingpad.succ:
  %_145 = call ptr @__cxa_begin_catch(ptr %_141)
  %_147 = getelementptr ptr, ptr %_145, i32 1
  %_48 = load ptr, ptr %_147
  call void @__cxa_end_catch()br label %_41.0
_48.landingpad.fail:
  resume { ptr, i32 } %_140
_50.landingpad:
  %_148 = landingpad { ptr, i32 } catch ptr @_ZTIN11scalanative16ExceptionWrapperE
  %_149 = extractvalue { ptr, i32 } %_148, 0
  %_150 = extractvalue { ptr, i32 } %_148, 1
  %_151 = call i32 @llvm.eh.typeid.for(ptr @_ZTIN11scalanative16ExceptionWrapperE)
  %_152 = icmp eq i32 %_150, %_151
  br i1 %_152, label %_50.landingpad.succ, label %_50.landingpad.fail
_50.landingpad.succ:
  %_153 = call ptr @__cxa_begin_catch(ptr %_149)
  %_155 = getelementptr ptr, ptr %_153, i32 1
  %_50 = load ptr, ptr %_155
  call void @__cxa_end_catch()br label %_41.0
_50.landingpad.fail:
  resume { ptr, i32 } %_148
_52.landingpad:
  %_156 = landingpad { ptr, i32 } catch ptr @_ZTIN11scalanative16ExceptionWrapperE
  %_157 = extractvalue { ptr, i32 } %_156, 0
  %_158 = extractvalue { ptr, i32 } %_156, 1
  %_159 = call i32 @llvm.eh.typeid.for(ptr @_ZTIN11scalanative16ExceptionWrapperE)
  %_160 = icmp eq i32 %_158, %_159
  br i1 %_160, label %_52.landingpad.succ, label %_52.landingpad.fail
_52.landingpad.succ:
  %_161 = call ptr @__cxa_begin_catch(ptr %_157)
  %_163 = getelementptr ptr, ptr %_161, i32 1
  %_52 = load ptr, ptr %_163
  call void @__cxa_end_catch()br label %_51.0
_52.landingpad.fail:
  resume { ptr, i32 } %_156
_70.landingpad:
  %_164 = landingpad { ptr, i32 } catch ptr @_ZTIN11scalanative16ExceptionWrapperE
  %_165 = extractvalue { ptr, i32 } %_164, 0
  %_166 = extractvalue { ptr, i32 } %_164, 1
  %_167 = call i32 @llvm.eh.typeid.for(ptr @_ZTIN11scalanative16ExceptionWrapperE)
  %_168 = icmp eq i32 %_166, %_167
  br i1 %_168, label %_70.landingpad.succ, label %_70.landingpad.fail
_70.landingpad.succ:
  %_169 = call ptr @__cxa_begin_catch(ptr %_165)
  %_171 = getelementptr ptr, ptr %_169, i32 1
  %_70 = load ptr, ptr %_171
  call void @__cxa_end_catch()br label %_33.0
_70.landingpad.fail:
  resume { ptr, i32 } %_164
_72.landingpad:
  %_172 = landingpad { ptr, i32 } catch ptr @_ZTIN11scalanative16ExceptionWrapperE
  %_173 = extractvalue { ptr, i32 } %_172, 0
  %_174 = extractvalue { ptr, i32 } %_172, 1
  %_175 = call i32 @llvm.eh.typeid.for(ptr @_ZTIN11scalanative16ExceptionWrapperE)
  %_176 = icmp eq i32 %_174, %_175
  br i1 %_176, label %_72.landingpad.succ, label %_72.landingpad.fail
_72.landingpad.succ:
  %_177 = call ptr @__cxa_begin_catch(ptr %_173)
  %_179 = getelementptr ptr, ptr %_177, i32 1
  %_72 = load ptr, ptr %_179
  call void @__cxa_end_catch()br label %_41.0
_72.landingpad.fail:
  resume { ptr, i32 } %_172
}

define void @"_SM43scala.sys.process.ProcessImpl$SimpleProcessD9interruptuEPT43scala.sys.process.ProcessImpl$SimpleProcess"(ptr %_1) personality ptr @__gxx_personality_v0 {
_2000000.0:
  %_5000003 = icmp ne ptr %_1, null
  br i1 %_5000003, label %_5000001.0, label %_5000002.0
_5000001.0:
  %_5000004 = getelementptr { { ptr, ptr }, ptr, ptr, ptr, ptr }, { { ptr, ptr }, ptr, ptr, ptr, ptr }* %_1, i32 0, i32 3
  %_2000001 = load atomic ptr, ptr %_5000004 unordered, align 8
  %_2000003 = icmp ne ptr %_2000001, null
  br i1 %_2000003, label %_3000000.0, label %_4000000.0
_3000000.0:
  %_5000005 = getelementptr { { ptr, ptr }, ptr, ptr, ptr, ptr }, { { ptr, ptr }, ptr, ptr, ptr, ptr }* %_1, i32 0, i32 3
  %_3000001 = load atomic ptr, ptr %_5000005 unordered, align 8
  call void @"_SM16java.lang.ThreadD9interruptuEO"(ptr dereferenceable_or_null(104) %_3000001)
  br label %_5000000.0
_4000000.0:
  br label %_5000000.0
_5000000.0:
  %_5000015 = load ptr, ptr @scalanative_GC_yieldpoint_trap
  %_5000016 = load volatile ptr, ptr %_5000015
  ret void
_5000002.0:
  call ptr @"_SM34scala.scalanative.runtime.package$D16throwNullPointernEO"(ptr null)
  unreachable
}

define dereferenceable_or_null(16) ptr @"_SM53scala.sys.process.ProcessImpl$SimpleProcess$$Lambda$1D5applyL16java.lang.ObjectL16java.lang.ObjectEO"(ptr %_1, ptr %_2) personality ptr @__gxx_personality_v0 {
_3000000.0:
  %_4000005 = icmp ne ptr %_1, null
  br i1 %_4000005, label %_4000003.0, label %_4000004.0
_4000003.0:
  %_4000006 = getelementptr { { ptr, ptr }, ptr }, { { ptr, ptr }, ptr }* %_1, i32 0, i32 1
  %_3000002 = load atomic ptr, ptr %_4000006 unordered, align 8
  %_4000001 = bitcast ptr %_2 to ptr
  call void @"_SM16java.lang.ThreadD4joinuEO"(ptr dereferenceable_or_null(104) %_4000001)
  %_4000013 = load ptr, ptr @scalanative_GC_yieldpoint_trap
  %_4000014 = load volatile ptr, ptr %_4000013
  ret ptr @"_SM36scala.scalanative.runtime.BoxedUnit$G8instance"
_4000004.0:
  call ptr @"_SM34scala.scalanative.runtime.package$D16throwNullPointernEO"(ptr null)
  unreachable
}

define void @"_SM53scala.sys.process.ProcessImpl$SimpleProcess$$Lambda$1RL43scala.sys.process.ProcessImpl$SimpleProcessE"(ptr %_1, ptr %_2) personality ptr @__gxx_personality_v0 {
_3000000.0:
  %_3000004 = icmp ne ptr %_1, null
  br i1 %_3000004, label %_3000002.0, label %_3000003.0
_3000002.0:
  %_3000006 = getelementptr { { ptr, ptr }, ptr }, { { ptr, ptr }, ptr }* %_1, i32 0, i32 1
  store atomic ptr %_2, ptr%_3000006 unordered, align 8
  ret void
_3000003.0:
  call ptr @"_SM34scala.scalanative.runtime.package$D16throwNullPointernEO"(ptr null)
  unreachable
}

define nonnull dereferenceable(112) ptr @"_SM36scala.sys.process.ProcessImpl$Spawn$D5applyL16java.lang.StringzL15scala.Function0L16java.lang.ThreadEO"(ptr %_1, ptr %_2, i1 %_3, ptr %_4) personality ptr @__gxx_personality_v0 {
_5000000.0:
  %_6000002 = call dereferenceable_or_null(24) ptr @"_SM17java.lang.Thread$G4load"()
  %_6000003 = call nonnull dereferenceable(40) ptr @"_SM17java.lang.Thread$D14nextThreadNameL16java.lang.StringEO"(ptr nonnull dereferenceable(24) %_6000002)
  br label %_7000000.0
_7000000.0:
  br label %_8000000.0
_8000000.0:
  %_8000001 = call dereferenceable_or_null(104) ptr @"scalanative_currentThread"()
  br label %_9000000.0
_9000000.0:
  %_9000002 = icmp eq ptr %_8000001, null
  br i1 %_9000002, label %_10000000.0, label %_11000000.0
_10000000.0:
  %_10000001 = call dereferenceable_or_null(112) ptr @"_SM28java.lang.Thread$MainThread$G4load"()
  br label %_12000000.0
_11000000.0:
  br label %_13000000.0
_13000000.0:
  br label %_12000000.0
_12000000.0:
  %_12000001 = phi ptr [%_8000001, %_13000000.0], [%_10000001, %_10000000.0]
  br label %_14000000.0
_14000000.0:
  %_14000001 = call dereferenceable_or_null(64) ptr @"_SM16java.lang.ThreadD14getThreadGroupL21java.lang.ThreadGroupEO"(ptr dereferenceable_or_null(104) %_12000001)
  br label %_15000000.0
_15000000.0:
  %_63000005 = icmp eq ptr %_12000001, null
  br i1 %_63000005, label %_63000002.0, label %_63000003.0
_63000002.0:
  br label %_63000004.0
_63000003.0:
  %_63000006 = load ptr, ptr %_12000001
  %_63000007 = icmp eq ptr %_63000006, @"_SM23java.lang.VirtualThreadG4type"
  br label %_63000004.0
_63000004.0:
  %_15000002 = phi i1 [%_63000007, %_63000003.0], [false, %_63000002.0]
  br i1 %_15000002, label %_16000000.0, label %_17000000.0
_16000000.0:
  br label %_18000000.0
_17000000.0:
  %_63000010 = icmp ne ptr %_12000001, null
  br i1 %_63000010, label %_63000008.0, label %_63000009.0
_63000008.0:
  %_63000011 = getelementptr { { ptr, ptr }, ptr, ptr, i1, ptr, ptr, ptr, ptr, i64, i32, i64, i32 }, { { ptr, ptr }, ptr, ptr, i1, ptr, ptr, ptr, ptr, i64, i32, i64, i32 }* %_12000001, i32 0, i32 1
  %_17000001 = load atomic ptr, ptr %_63000011 unordered, align 8
  %_63000013 = icmp ne ptr %_17000001, null
  br i1 %_63000013, label %_63000012.0, label %_63000009.0
_63000012.0:
  %_63000014 = getelementptr { { ptr, ptr }, ptr, ptr, i1, ptr, i64, i32 }, { { ptr, ptr }, ptr, ptr, i1, ptr, i64, i32 }* %_17000001, i32 0, i32 3
  %_63000015 = load atomic i8, ptr %_63000014 seq_cst, align 1
  %_17000002 = trunc i8 %_63000015 to i1
  br label %_18000000.0
_18000000.0:
  %_18000001 = phi i1 [%_17000002, %_63000012.0], [true, %_16000000.0]
  br i1 %_15000002, label %_19000000.0, label %_20000000.0
_19000000.0:
  br label %_21000000.0
_20000000.0:
  %_63000016 = getelementptr { { ptr, ptr }, ptr, ptr, i1, ptr, ptr, ptr, ptr, i64, i32, i64, i32 }, { { ptr, ptr }, ptr, ptr, i1, ptr, ptr, ptr, ptr, i64, i32, i64, i32 }* %_12000001, i32 0, i32 1
  %_20000001 = load atomic ptr, ptr %_63000016 unordered, align 8
  %_63000018 = icmp ne ptr %_20000001, null
  br i1 %_63000018, label %_63000017.0, label %_63000009.0
_63000017.0:
  %_63000019 = getelementptr { { ptr, ptr }, ptr, ptr, i1, ptr, i64, i32 }, { { ptr, ptr }, ptr, ptr, i1, ptr, i64, i32 }* %_20000001, i32 0, i32 6
  %_20000002 = load atomic i32, ptr %_63000019 seq_cst, align 4
  br label %_21000000.0
_21000000.0:
  %_21000001 = phi i32 [%_20000002, %_63000017.0], [5, %_19000000.0]
  %_63000021 = icmp ne ptr %_14000001, null
  br i1 %_63000021, label %_63000020.0, label %_63000009.0
_63000020.0:
  %_63000022 = getelementptr { { ptr, ptr }, ptr, ptr, i32, ptr, ptr, i32 }, { { ptr, ptr }, ptr, ptr, i32, ptr, ptr, i32 }* %_14000001, i32 0, i32 3
  %_21000002 = load atomic i32, ptr %_63000022 seq_cst, align 4
  %_21000004 = icmp slt i32 %_21000001, %_21000002
  br i1 %_21000004, label %_22000000.0, label %_23000000.0
_22000000.0:
  br label %_24000000.0
_23000000.0:
  br label %_24000000.0
_24000000.0:
  %_24000001 = phi i32 [%_21000002, %_23000000.0], [%_21000001, %_22000000.0]
  br label %_25000000.0
_25000000.0:
  %_25000002 = call dereferenceable_or_null(24) ptr @"_SM35java.lang.Thread$ThreadIdentifiers$G4load"()
  %_63000023 = getelementptr { { ptr, ptr }, i64 }, { { ptr, ptr }, i64 }* %_25000002, i32 0, i32 1
  %_25000005 = call i64 @"scalanative_atomic_fetch_add_llong"(ptr %_63000023, i64 1)
  br label %_26000000.0
_26000000.0:
  br label %_27000000.0
_27000000.0:
  br label %_28000000.0
_28000000.0:
  br label %_29000000.0
_29000000.0:
  br label %_30000000.0
_30000000.0:
  %_30000001 = call dereferenceable_or_null(104) ptr @"scalanative_currentThread"()
  br label %_31000000.0
_31000000.0:
  %_31000002 = icmp eq ptr %_30000001, null
  br i1 %_31000002, label %_32000000.0, label %_33000000.0
_32000000.0:
  %_32000001 = call dereferenceable_or_null(112) ptr @"_SM28java.lang.Thread$MainThread$G4load"()
  br label %_34000000.0
_33000000.0:
  br label %_35000000.0
_35000000.0:
  br label %_34000000.0
_34000000.0:
  %_34000001 = phi ptr [%_30000001, %_35000000.0], [%_32000001, %_32000000.0]
  %_63000025 = icmp ne ptr %_34000001, null
  br i1 %_63000025, label %_63000024.0, label %_63000009.0
_63000024.0:
  %_63000026 = getelementptr { { ptr, ptr }, ptr, ptr, i1, ptr, ptr, ptr, ptr, i64, i32, i64, i32 }, { { ptr, ptr }, ptr, ptr, i1, ptr, ptr, ptr, ptr, i64, i32, i64, i32 }* %_34000001, i32 0, i32 6
  %_34000002 = load atomic ptr, ptr %_63000026 unordered, align 8
  %_34000004 = icmp ne ptr %_34000002, null
  br i1 %_34000004, label %_36000000.0, label %_37000000.0
_36000000.0:
  %_36000002 = icmp eq ptr %_34000002, null
  br i1 %_36000002, label %_38000000.0, label %_39000000.0
_38000000.0:
  %_38000001 = call dereferenceable_or_null(48) ptr @"_SM41java.lang.ThreadLocal$Values$Unsupported$G4load"()
  br label %_40000000.0
_39000000.0:
  %_39000001 = call dereferenceable_or_null(48) ptr @"_SM41java.lang.ThreadLocal$Values$Unsupported$G4load"()
  %_39000003 = icmp eq ptr %_34000002, %_39000001
  br label %_40000000.0
_40000000.0:
  %_40000001 = phi i1 [%_39000003, %_39000000.0], [false, %_38000000.0]
  %_40000003 = xor i1 %_40000001, true
  br label %_41000000.0
_37000000.0:
  br label %_41000000.0
_41000000.0:
  %_41000001 = phi i1 [false, %_37000000.0], [%_40000003, %_40000000.0]
  br i1 %_41000001, label %_42000000.0, label %_43000000.0
_42000000.0:
  %_63000028 = icmp ne ptr %_34000002, null
  br i1 %_63000028, label %_63000027.0, label %_63000009.0
_63000027.0:
  %_63000029 = getelementptr { { ptr, ptr }, i32, i32, i32, i32, i32, ptr }, { { ptr, ptr }, i32, i32, i32, i32, i32, ptr }* %_34000002, i32 0, i32 4
  %_42000001 = load atomic i32, ptr %_63000029 unordered, align 4
  %_42000003 = icmp sgt i32 %_42000001, 0
  br label %_44000000.0
_43000000.0:
  br label %_44000000.0
_44000000.0:
  %_44000001 = phi i1 [false, %_43000000.0], [%_42000003, %_63000027.0]
  br i1 %_44000001, label %_45000000.0, label %_46000000.0
_45000000.0:
  %_63000030 = getelementptr { { ptr, ptr }, ptr, ptr, i1, ptr, ptr, ptr, ptr, i64, i32, i64, i32 }, { { ptr, ptr }, ptr, ptr, i1, ptr, ptr, ptr, ptr, i64, i32, i64, i32 }* %_34000001, i32 0, i32 6
  %_45000001 = load atomic ptr, ptr %_63000030 unordered, align 8
  %_63000032 = icmp ne ptr %_45000001, null
  br i1 %_63000032, label %_63000031.0, label %_63000009.0
_63000031.0:
  %_63000033 = getelementptr { { ptr, ptr }, i32, i32, i32, i32, i32, ptr }, { { ptr, ptr }, i32, i32, i32, i32, i32, ptr }* %_45000001, i32 0, i32 6
  %_45000002 = load atomic ptr, ptr %_63000033 unordered, align 8
  %_63000035 = icmp ne ptr %_45000002, null
  br i1 %_63000035, label %_63000034.0, label %_63000009.0
_63000034.0:
  %_63000036 = getelementptr { ptr, ptr, i32, i32 }, { ptr, ptr, i32, i32 }* %_45000002, i32 0, i32 2
  %_45000003 = load i32, ptr %_63000036
  %_45000004 = call ptr @"scalanative_GC_alloc_array"(ptr @"_SM37scala.scalanative.runtime.ObjectArrayG4type", i32 %_45000003, i32 8)
  br label %_47000000.0
_47000000.0:
  br label %_48000000.0
_48000000.0:
  br label %_49000000.0
_49000000.0:
  br label %_50000000.0
_50000000.0:
  br label %_51000000.0
_51000000.0:
  br label %_52000000.0
_52000000.0:
  br label %_53000000.0
_53000000.0:
  br label %_54000000.0
_54000000.0:
  %_54000006 = getelementptr i8, ptr %_45000004, i32 24
  %_54000007 = bitcast ptr %_45000002 to ptr
  %_54000008 = getelementptr i8, ptr %_54000007, i32 24
  %_63000037 = and i32 3, 31
  %_54000009 = shl i32 %_45000003, %_63000037
  %_54000010 = zext i32 %_54000009 to i64
  %_54000011 = call ptr @"memcpy"(ptr %_54000006, ptr %_54000008, i64 %_54000010)
  %_54000013 = bitcast ptr %_45000004 to ptr
  %_63000041 = icmp eq ptr %_54000013, null
  br i1 %_63000041, label %_63000039.0, label %_63000038.0
_63000038.0:
  %_63000042 = load ptr, ptr %_54000013
  %_63000043 = icmp eq ptr %_63000042, @"_SM37scala.scalanative.runtime.ObjectArrayG4type"
  br i1 %_63000043, label %_63000039.0, label %_63000040.0
_63000039.0:
  %_63000044 = getelementptr { { ptr, ptr }, i32, i32, i32, i32, i32, ptr }, { { ptr, ptr }, i32, i32, i32, i32, i32, ptr }* %_45000001, i32 0, i32 5
  %_54000015 = load atomic i32, ptr %_63000044 unordered, align 4
  %_63000045 = getelementptr { { ptr, ptr }, i32, i32, i32, i32, i32, ptr }, { { ptr, ptr }, i32, i32, i32, i32, i32, ptr }* %_45000001, i32 0, i32 3
  %_54000016 = load atomic i32, ptr %_63000045 unordered, align 4
  %_63000046 = getelementptr { { ptr, ptr }, i32, i32, i32, i32, i32, ptr }, { { ptr, ptr }, i32, i32, i32, i32, i32, ptr }* %_45000001, i32 0, i32 4
  %_54000017 = load atomic i32, ptr %_63000046 unordered, align 4
  %_63000047 = getelementptr { { ptr, ptr }, i32, i32, i32, i32, i32, ptr }, { { ptr, ptr }, i32, i32, i32, i32, i32, ptr }* %_45000001, i32 0, i32 1
  %_54000018 = load atomic i32, ptr %_63000047 unordered, align 4
  %_63000048 = getelementptr { { ptr, ptr }, i32, i32, i32, i32, i32, ptr }, { { ptr, ptr }, i32, i32, i32, i32, i32, ptr }* %_45000001, i32 0, i32 2
  %_54000019 = load atomic i32, ptr %_63000048 unordered, align 4
  %_54000021 = call dereferenceable_or_null(48) ptr @"scalanative_GC_alloc_small"(ptr @"_SM28java.lang.ThreadLocal$ValuesG4type", i64 48)
  %_63000050 = getelementptr { { ptr, ptr }, i32, i32, i32, i32, i32, ptr }, { { ptr, ptr }, i32, i32, i32, i32, i32, ptr }* %_54000021, i32 0, i32 2
  store atomic i32 %_54000019, ptr%_63000050 unordered, align 4
  %_63000052 = getelementptr { { ptr, ptr }, i32, i32, i32, i32, i32, ptr }, { { ptr, ptr }, i32, i32, i32, i32, i32, ptr }* %_54000021, i32 0, i32 1
  store atomic i32 %_54000018, ptr%_63000052 unordered, align 4
  %_63000054 = getelementptr { { ptr, ptr }, i32, i32, i32, i32, i32, ptr }, { { ptr, ptr }, i32, i32, i32, i32, i32, ptr }* %_54000021, i32 0, i32 4
  store atomic i32 %_54000017, ptr%_63000054 unordered, align 4
  %_63000056 = getelementptr { { ptr, ptr }, i32, i32, i32, i32, i32, ptr }, { { ptr, ptr }, i32, i32, i32, i32, i32, ptr }* %_54000021, i32 0, i32 3
  store atomic i32 %_54000016, ptr%_63000056 unordered, align 4
  %_63000058 = getelementptr { { ptr, ptr }, i32, i32, i32, i32, i32, ptr }, { { ptr, ptr }, i32, i32, i32, i32, i32, ptr }* %_54000021, i32 0, i32 5
  store atomic i32 %_54000015, ptr%_63000058 unordered, align 4
  %_63000060 = getelementptr { { ptr, ptr }, i32, i32, i32, i32, i32, ptr }, { { ptr, ptr }, i32, i32, i32, i32, i32, ptr }* %_54000021, i32 0, i32 6
  store atomic ptr %_54000013, ptr%_63000060 unordered, align 8
  call void @"_SM28java.lang.ThreadLocal$ValuesD13inheritValuesL28java.lang.ThreadLocal$ValuesuEPT28java.lang.ThreadLocal$Values"(ptr nonnull dereferenceable(48) %_54000021, ptr dereferenceable_or_null(48) %_45000001)
  br label %_55000000.0
_46000000.0:
  br label %_55000000.0
_55000000.0:
  %_55000001 = phi ptr [null, %_46000000.0], [%_54000021, %_63000039.0]
  br label %_56000000.0
_56000000.0:
  br label %_57000000.0
_57000000.0:
  %_59000001 = call dereferenceable_or_null(32) ptr @"scalanative_GC_alloc_small"(ptr @"_SM23java.lang.StringBuilderG4type", i64 32)
  %_59000002 = call dereferenceable_or_null(24) ptr @"_SM36scala.scalanative.runtime.CharArray$D5allociL35scala.scalanative.runtime.CharArrayEO"(ptr @"_SM36scala.scalanative.runtime.CharArray$G8instance", i32 7)
  %_63000064 = getelementptr { { ptr, ptr }, i32, i1, ptr }, { { ptr, ptr }, i32, i1, ptr }* %_59000001, i32 0, i32 3
  store atomic ptr %_59000002, ptr%_63000064 unordered, align 8
  call void @"_SM31java.lang.AbstractStringBuilderD7append0L16java.lang.StringuEO"(ptr nonnull dereferenceable(32) %_59000001, ptr dereferenceable_or_null(40) %_2)
  call void @"_SM31java.lang.AbstractStringBuilderD7append0L16java.lang.StringuEO"(ptr nonnull dereferenceable(32) %_59000001, ptr @"_SM7__constG2-77")
  call void @"_SM31java.lang.AbstractStringBuilderD7append0L16java.lang.StringuEO"(ptr nonnull dereferenceable(32) %_59000001, ptr nonnull dereferenceable(40) %_6000003)
  %_63000001 = call nonnull dereferenceable(40) ptr @"_SM31java.lang.AbstractStringBuilderD8toStringL16java.lang.StringEO"(ptr nonnull dereferenceable(32) %_59000001)
  %_5000005 = call dereferenceable_or_null(112) ptr @"scalanative_GC_alloc_small"(ptr @"_SM43scala.sys.process.ProcessImpl$Spawn$$anon$1G4type", i64 112)
  %_5000006 = call dereferenceable_or_null(64) ptr @"scalanative_GC_alloc_small"(ptr @"_SM31java.lang.PlatformThreadContextG4type", i64 64)
  %_63000069 = getelementptr { { ptr, ptr }, ptr, ptr, i1, ptr, i64, i32 }, { { ptr, ptr }, ptr, ptr, i1, ptr, i64, i32 }* %_5000006, i32 0, i32 3
  %_63000070 = zext i1 %_18000001 to i8
  store atomic i8 %_63000070, ptr%_63000069 seq_cst, align 1
  %_63000072 = getelementptr { { ptr, ptr }, ptr, ptr, i1, ptr, i64, i32 }, { { ptr, ptr }, ptr, ptr, i1, ptr, i64, i32 }* %_5000006, i32 0, i32 6
  store atomic i32 %_24000001, ptr%_63000072 seq_cst, align 4
  %_63000074 = getelementptr { { ptr, ptr }, ptr, ptr, i1, ptr, i64, i32 }, { { ptr, ptr }, ptr, ptr, i1, ptr, i64, i32 }* %_5000006, i32 0, i32 1
  store atomic ptr %_14000001, ptr%_63000074 unordered, align 8
  %_63000076 = getelementptr { { ptr, ptr }, ptr, ptr, i1, ptr, ptr, ptr, ptr, i64, i32, i64, i32 }, { { ptr, ptr }, ptr, ptr, i1, ptr, ptr, ptr, ptr, i64, i32, i64, i32 }* %_5000005, i32 0, i32 1
  store atomic ptr %_5000006, ptr%_63000076 unordered, align 8
  %_63000078 = getelementptr { { ptr, ptr }, ptr, ptr, i1, ptr, ptr, ptr, ptr, i64, i32, i64, i32 }, { { ptr, ptr }, ptr, ptr, i1, ptr, ptr, ptr, ptr, i64, i32, i64, i32 }* %_5000005, i32 0, i32 8
  store atomic i64 %_25000005, ptr%_63000078 unordered, align 8
  %_63000080 = getelementptr { { ptr, ptr }, ptr, ptr, i1, ptr, ptr, ptr, ptr, i64, i32, i64, i32 }, { { ptr, ptr }, ptr, ptr, i1, ptr, ptr, ptr, ptr, i64, i32, i64, i32 }* %_5000005, i32 0, i32 6
  store atomic ptr %_55000001, ptr%_63000080 unordered, align 8
  %_63000082 = getelementptr { { ptr, ptr }, ptr, ptr, i1, ptr, ptr, ptr, ptr, i64, i32, i64, i32 }, { { ptr, ptr }, ptr, ptr, i1, ptr, ptr, ptr, ptr, i64, i32, i64, i32 }* %_5000005, i32 0, i32 5
  store atomic ptr %_6000003, ptr%_63000082 seq_cst, align 8
  %_63000084 = getelementptr { { ptr, ptr }, ptr, ptr, i1, ptr, ptr, ptr, ptr, i64, i32, i64, i32, ptr }, { { ptr, ptr }, ptr, ptr, i1, ptr, ptr, ptr, ptr, i64, i32, i64, i32, ptr }* %_5000005, i32 0, i32 12
  store atomic ptr %_4, ptr%_63000084 unordered, align 8
  call void @"_SM16java.lang.ThreadD7setNameL16java.lang.StringuEO"(ptr nonnull dereferenceable(112) %_5000005, ptr nonnull dereferenceable(40) %_63000001)
  call void @"_SM16java.lang.ThreadD9setDaemonzuEO"(ptr nonnull dereferenceable(112) %_5000005, i1 %_3)
  call void @"_SM16java.lang.ThreadD5startuEO"(ptr nonnull dereferenceable(112) %_5000005)
  %_63000196 = load ptr, ptr @scalanative_GC_yieldpoint_trap
  %_63000197 = load volatile ptr, ptr %_63000196
  ret ptr %_5000005
_63000009.0:
  call ptr @"_SM34scala.scalanative.runtime.package$D16throwNullPointernEO"(ptr null)
  unreachable
_63000040.0:
  %_63000090 = phi ptr [%_54000013, %_63000038.0]
  %_63000091 = phi ptr [@"_SM37scala.scalanative.runtime.ObjectArrayG4type", %_63000038.0]
  %_63000092 = load ptr, ptr %_63000090
  call ptr @"_SM34scala.scalanative.runtime.package$D14throwClassCastR_R_nEO"(ptr null, ptr %_63000092, ptr %_63000091)
  unreachable
}

define void @"_SM36scala.sys.process.ProcessImpl$Spawn$RL26scala.sys.process.Process$E"(ptr %_1, ptr %_2) personality ptr @__gxx_personality_v0 {
_3000000.0:
  ret void
}

define void @"_SM43scala.sys.process.ProcessImpl$Spawn$$anon$1D3runuEO"(ptr %_1) personality ptr @__gxx_personality_v0 {
_2000000.0:
  %_2000007 = icmp ne ptr %_1, null
  br i1 %_2000007, label %_2000005.0, label %_2000006.0
_2000005.0:
  %_2000008 = getelementptr { { ptr, ptr }, ptr, ptr, i1, ptr, ptr, ptr, ptr, i64, i32, i64, i32, ptr }, { { ptr, ptr }, ptr, ptr, i1, ptr, ptr, ptr, ptr, i64, i32, i64, i32, ptr }* %_1, i32 0, i32 12
  %_2000001 = load atomic ptr, ptr %_2000008 unordered, align 8
  %_2000010 = icmp ne ptr %_2000001, null
  br i1 %_2000010, label %_2000009.0, label %_2000006.0
_2000009.0:
  %_2000011 = load ptr, ptr %_2000001
  %_2000012 = getelementptr { ptr, ptr, i32, i32, ptr }, { ptr, ptr, i32, i32, ptr }* %_2000011, i32 0, i32 3
  %_2000013 = load i32, ptr %_2000012
  %_2000014 = getelementptr ptr, ptr @"_SM22__scalanative_metadataG14dispatch_table", i32 5404
  %_2000015 = getelementptr ptr, ptr %_2000014, i32 %_2000013
  %_2000003 = load ptr, ptr %_2000015
  call void %_2000003(ptr dereferenceable_or_null(16) %_2000001)
  %_2000032 = load ptr, ptr @scalanative_GC_yieldpoint_trap
  %_2000033 = load volatile ptr, ptr %_2000032
  ret void
_2000006.0:
  call ptr @"_SM34scala.scalanative.runtime.package$D16throwNullPointernEO"(ptr null)
  unreachable
}

define nonnull dereferenceable(24) ptr @"_SM34scala.sys.process.processInternal$D13onIOInterruptL15scala.Function0L21scala.PartialFunctionEO"(ptr %_1, ptr %_2) personality ptr @__gxx_personality_v0 {
_3000000.0:
  %_3000002 = call dereferenceable_or_null(24) ptr @"scalanative_GC_alloc_small"(ptr @"_SM58scala.sys.process.processInternal$$anonfun$onIOInterrupt$1G4type", i64 24)
  %_3000005 = getelementptr { { ptr, ptr }, ptr }, { { ptr, ptr }, ptr }* %_3000002, i32 0, i32 1
  store atomic ptr %_2, ptr%_3000005 unordered, align 8
  ret ptr %_3000002
}

define void @"_SM34scala.sys.process.processInternal$D3dbgL30scala.collection.immutable.SequEO"(ptr %_1, ptr %_2) personality ptr @__gxx_personality_v0 {
_3000000.0:
  %_13000003 = icmp ne ptr %_1, null
  br i1 %_13000003, label %_13000001.0, label %_13000002.0
_13000001.0:
  %_13000004 = getelementptr { { ptr, ptr }, i1 }, { { ptr, ptr }, i1 }* %_1, i32 0, i32 1
  %_13000005 = load atomic i8, ptr %_13000004 unordered, align 1
  %_4000001 = trunc i8 %_13000005 to i1
  br i1 %_4000001, label %_5000000.0, label %_6000000.0
_5000000.0:
  %_5000001 = call dereferenceable_or_null(40) ptr @"_SM14scala.Console$G4load"()
  %_8000001 = call dereferenceable_or_null(32) ptr @"scalanative_GC_alloc_small"(ptr @"_SM23java.lang.StringBuilderG4type", i64 32)
  %_8000002 = call dereferenceable_or_null(24) ptr @"_SM36scala.scalanative.runtime.CharArray$D5allociL35scala.scalanative.runtime.CharArrayEO"(ptr @"_SM36scala.scalanative.runtime.CharArray$G8instance", i32 10)
  %_13000008 = getelementptr { { ptr, ptr }, i32, i1, ptr }, { { ptr, ptr }, i32, i1, ptr }* %_8000001, i32 0, i32 3
  store atomic ptr %_8000002, ptr%_13000008 unordered, align 8
  call void @"_SM31java.lang.AbstractStringBuilderD7append0L16java.lang.StringuEO"(ptr nonnull dereferenceable(32) %_8000001, ptr @"_SM7__constG2-79")
  %_9000005 = bitcast ptr %_2 to ptr
  %_9000006 = call nonnull dereferenceable(40) ptr @"_SM32scala.collection.IterableOnceOpsD8mkStringL16java.lang.StringL16java.lang.StringL16java.lang.StringL16java.lang.StringEO"(ptr dereferenceable_or_null(16) %_9000005, ptr @"_SM7__constG2-81", ptr @"_SM7__constG2-83", ptr @"_SM7__constG2-81")
  call void @"_SM31java.lang.AbstractStringBuilderD7append0L16java.lang.StringuEO"(ptr nonnull dereferenceable(32) %_8000001, ptr nonnull dereferenceable(40) %_9000006)
  %_11000001 = call nonnull dereferenceable(40) ptr @"_SM31java.lang.AbstractStringBuilderD8toStringL16java.lang.StringEO"(ptr nonnull dereferenceable(32) %_8000001)
  %_13000011 = getelementptr { { ptr, ptr }, ptr, ptr, ptr }, { { ptr, ptr }, ptr, ptr, ptr }* %_5000001, i32 0, i32 2
  %_12000001 = load atomic ptr, ptr %_13000011 unordered, align 8
  %_13000013 = icmp ne ptr %_12000001, null
  br i1 %_13000013, label %_13000012.0, label %_13000002.0
_13000012.0:
  %_13000014 = getelementptr { { ptr, ptr }, ptr, ptr }, { { ptr, ptr }, ptr, ptr }* %_12000001, i32 0, i32 1
  %_12000002 = load atomic ptr, ptr %_13000014 unordered, align 8
  %_12000003 = call dereferenceable_or_null(16) ptr @"_SM21java.lang.ThreadLocalD3getL16java.lang.ObjectEO"(ptr dereferenceable_or_null(32) %_12000002)
  %_13000018 = icmp eq ptr %_12000003, null
  br i1 %_13000018, label %_13000016.0, label %_13000015.0
_13000015.0:
  %_13000019 = load ptr, ptr %_12000003
  %_13000020 = icmp eq ptr %_13000019, @"_SM19java.io.PrintStreamG4type"
  br i1 %_13000020, label %_13000016.0, label %_13000017.0
_13000016.0:
  call void @"_SM19java.io.PrintStreamD7printlnL16java.lang.ObjectuEO"(ptr dereferenceable_or_null(56) %_12000003, ptr nonnull dereferenceable(40) %_11000001)
  br label %_13000000.0
_6000000.0:
  br label %_13000000.0
_13000000.0:
  %_13000042 = load ptr, ptr @scalanative_GC_yieldpoint_trap
  %_13000043 = load volatile ptr, ptr %_13000042
  ret void
_13000002.0:
  call ptr @"_SM34scala.scalanative.runtime.package$D16throwNullPointernEO"(ptr null)
  unreachable
_13000017.0:
  %_13000024 = phi ptr [%_12000003, %_13000015.0]
  %_13000025 = phi ptr [@"_SM19java.io.PrintStreamG4type", %_13000015.0]
  %_13000026 = load ptr, ptr %_13000024
  call ptr @"_SM34scala.scalanative.runtime.package$D14throwClassCastR_R_nEO"(ptr null, ptr %_13000026, ptr %_13000025)
  unreachable
}

define dereferenceable_or_null(24) ptr @"_SM34scala.sys.process.processInternal$G4load"() personality ptr @__gxx_personality_v0 {
_1.0:
  %_4 = getelementptr ptr, ptr @"__modules", i32 105
  %_5 = call ptr @"__scalanative_loadModule"(ptr %_4, ptr @"_SM34scala.sys.process.processInternal$G4type", i64 24, ptr @"_SM34scala.sys.process.processInternal$RE")
  ret ptr %_5
}

define void @"_SM34scala.sys.process.processInternal$RE"(ptr %_1) personality ptr @__gxx_personality_v0 {
_2000000.0:
  %_7000003 = icmp ne ptr %_1, null
  br i1 %_7000003, label %_7000001.0, label %_7000002.0
_7000001.0:
  %_2000004 = call dereferenceable_or_null(16) ptr @"scalanative_GC_alloc_small"(ptr @"_SM26scala.sys.SystemPropertiesG4type", i64 16)
  %_2000005 = call i1 @"_SM26scala.sys.SystemPropertiesD8containsL16java.lang.StringzEO"(ptr nonnull dereferenceable(16) %_2000004, ptr @"_SM7__constG2-85")
  %_7000005 = getelementptr { { ptr, ptr }, i1 }, { { ptr, ptr }, i1 }* %_1, i32 0, i32 1
  %_7000006 = zext i1 %_2000005 to i8
  store atomic i8 %_7000006, ptr%_7000005 unordered, align 1
  br label %_6000000.0
_6000000.0:
  %_6000002 = call dereferenceable_or_null(40) ptr @"_SM36scala.collection.immutable.ArraySeq$G4load"()
  %_6000003 = call dereferenceable_or_null(24) ptr @"_SM38scala.scalanative.runtime.ObjectArray$D5allociL37scala.scalanative.runtime.ObjectArrayEO"(ptr @"_SM38scala.scalanative.runtime.ObjectArray$G8instance", i32 1)
  %_7000010 = getelementptr { ptr, ptr, i32, i32 }, { ptr, ptr, i32, i32 }* %_6000003, i32 0, i32 2
  %_7000009 = load i32, ptr %_7000010
  %_7000013 = icmp sge i32 0, 0
  %_7000014 = icmp slt i32 0, %_7000009
  %_7000015 = and i1 %_7000013, %_7000014
  br i1 %_7000015, label %_7000011.0, label %_7000012.0
_7000011.0:
  %_7000016 = getelementptr { { ptr, ptr, i32, i32 }, [0 x ptr] }, { { ptr, ptr, i32, i32 }, [0 x ptr] }* %_6000003, i32 0, i32 1, i32 0
  store ptr @"_SM7__constG2-87", ptr%_7000016, align 8
  %_6000005 = call dereferenceable_or_null(16) ptr @"_SM36scala.collection.immutable.ArraySeq$D15unsafeWrapArrayL16java.lang.ObjectL35scala.collection.immutable.ArraySeqEO"(ptr nonnull dereferenceable(40) %_6000002, ptr nonnull dereferenceable(24) %_6000003)
  br label %_7000000.0
_7000000.0:
  call void @"_SM34scala.sys.process.processInternal$D3dbgL30scala.collection.immutable.SequEO"(ptr dereferenceable_or_null(24) %_1, ptr dereferenceable_or_null(16) %_6000005)
  %_7000033 = load ptr, ptr @scalanative_GC_yieldpoint_trap
  %_7000034 = load volatile ptr, ptr %_7000033
  ret void
_7000002.0:
  call ptr @"_SM34scala.scalanative.runtime.package$D16throwNullPointernEO"(ptr null)
  unreachable
_7000012.0:
  %_7000020 = phi i32 [0, %_6000000.0]
  %_7000021 = phi i32 [%_7000009, %_6000000.0]
  call ptr @"_SM34scala.scalanative.runtime.package$D16throwOutOfBoundsiinEO"(ptr null, i32 %_7000020, i32 %_7000021)
  unreachable
}

define dereferenceable_or_null(16) ptr @"_SM58scala.sys.process.processInternal$$anonfun$onIOInterrupt$1D11applyOrElseL16java.lang.ObjectL15scala.Function1L16java.lang.ObjectEO"(ptr %_1, ptr %_2, ptr %_3) alwaysinline personality ptr @__gxx_personality_v0 {
_4000000.0:
  %_4000005 = icmp ne ptr %_1, null
  br i1 %_4000005, label %_4000003.0, label %_4000004.0
_4000003.0:
  %_4000009 = icmp eq ptr %_2, null
  br i1 %_4000009, label %_4000007.0, label %_4000006.0
_4000006.0:
  %_4000010 = load ptr, ptr %_2
  %_4000011 = getelementptr { ptr, ptr, i32, i32, ptr }, { ptr, ptr, i32, i32, ptr }* %_4000010, i32 0, i32 2
  %_4000012 = load i32, ptr %_4000011
  %_4000013 = icmp sle i32 1093, %_4000012
  %_4000014 = icmp sle i32 %_4000012, 1168
  %_4000015 = and i1 %_4000013, %_4000014
  br i1 %_4000015, label %_4000007.0, label %_4000008.0
_4000007.0:
  %_4000002 = call dereferenceable_or_null(16) ptr @"_SM58scala.sys.process.processInternal$$anonfun$onIOInterrupt$1D11applyOrElseL19java.lang.ThrowableL15scala.Function1L16java.lang.ObjectEO"(ptr dereferenceable_or_null(24) %_1, ptr dereferenceable_or_null(48) %_2, ptr dereferenceable_or_null(16) %_3)
  ret ptr %_4000002
_4000004.0:
  call ptr @"_SM34scala.scalanative.runtime.package$D16throwNullPointernEO"(ptr null)
  unreachable
_4000008.0:
  %_4000017 = phi ptr [%_2, %_4000006.0]
  %_4000018 = phi ptr [@"_SM19java.lang.ThrowableG4type", %_4000006.0]
  %_4000019 = load ptr, ptr %_4000017
  call ptr @"_SM34scala.scalanative.runtime.package$D14throwClassCastR_R_nEO"(ptr null, ptr %_4000019, ptr %_4000018)
  unreachable
}

define dereferenceable_or_null(16) ptr @"_SM58scala.sys.process.processInternal$$anonfun$onIOInterrupt$1D11applyOrElseL19java.lang.ThrowableL15scala.Function1L16java.lang.ObjectEO"(ptr %_1, ptr %_2, ptr %_3) personality ptr @__gxx_personality_v0 {
_4000000.0:
  %_9000006 = icmp ne ptr %_1, null
  br i1 %_9000006, label %_9000004.0, label %_9000005.0
_9000004.0:
  br label %_5000000.0
_5000000.0:
  %_9000010 = icmp eq ptr %_2, null
  br i1 %_9000010, label %_9000007.0, label %_9000008.0
_9000007.0:
  br label %_9000009.0
_9000008.0:
  %_9000011 = load ptr, ptr %_2
  %_9000012 = icmp eq ptr %_9000011, @"_SM30java.io.InterruptedIOExceptionG4type"
  br label %_9000009.0
_9000009.0:
  %_5000002 = phi i1 [%_9000012, %_9000008.0], [false, %_9000007.0]
  br i1 %_5000002, label %_6000000.0, label %_7000000.0
_6000000.0:
  %_9000013 = getelementptr { { ptr, ptr }, ptr }, { { ptr, ptr }, ptr }* %_1, i32 0, i32 1
  %_6000001 = load atomic ptr, ptr %_9000013 unordered, align 8
  %_9000015 = icmp ne ptr %_6000001, null
  br i1 %_9000015, label %_9000014.0, label %_9000005.0
_9000014.0:
  %_9000016 = load ptr, ptr %_6000001
  %_9000017 = getelementptr { ptr, ptr, i32, i32, ptr }, { ptr, ptr, i32, i32, ptr }* %_9000016, i32 0, i32 3
  %_9000018 = load i32, ptr %_9000017
  %_9000019 = getelementptr ptr, ptr @"_SM22__scalanative_metadataG14dispatch_table", i32 6001
  %_9000020 = getelementptr ptr, ptr %_9000019, i32 %_9000018
  %_6000003 = load ptr, ptr %_9000020
  %_6000004 = call dereferenceable_or_null(16) ptr %_6000003(ptr dereferenceable_or_null(16) %_6000001)
  br label %_8000000.0
_7000000.0:
  br label %_9000000.0
_9000000.0:
  %_9000022 = icmp ne ptr %_3, null
  br i1 %_9000022, label %_9000021.0, label %_9000005.0
_9000021.0:
  %_9000023 = load ptr, ptr %_3
  %_9000024 = getelementptr { ptr, ptr, i32, i32, ptr }, { ptr, ptr, i32, i32, ptr }* %_9000023, i32 0, i32 3
  %_9000025 = load i32, ptr %_9000024
  %_9000026 = getelementptr ptr, ptr @"_SM22__scalanative_metadataG14dispatch_table", i32 1812
  %_9000027 = getelementptr ptr, ptr %_9000026, i32 %_9000025
  %_9000002 = load ptr, ptr %_9000027
  %_9000003 = call dereferenceable_or_null(16) ptr %_9000002(ptr dereferenceable_or_null(16) %_3, ptr dereferenceable_or_null(48) %_2)
  br label %_8000000.0
_8000000.0:
  %_8000001 = phi ptr [%_9000003, %_9000021.0], [%_6000004, %_9000014.0]
  %_9000054 = load ptr, ptr @scalanative_GC_yieldpoint_trap
  %_9000055 = load volatile ptr, ptr %_9000054
  ret ptr %_8000001
_9000005.0:
  call ptr @"_SM34scala.scalanative.runtime.package$D16throwNullPointernEO"(ptr null)
  unreachable
}

define i1 @"_SM58scala.sys.process.processInternal$$anonfun$onIOInterrupt$1D11isDefinedAtL16java.lang.ObjectzEO"(ptr %_1, ptr %_2) alwaysinline personality ptr @__gxx_personality_v0 {
_3000000.0:
  %_3000005 = icmp ne ptr %_1, null
  br i1 %_3000005, label %_3000003.0, label %_3000004.0
_3000003.0:
  %_3000009 = icmp eq ptr %_2, null
  br i1 %_3000009, label %_3000007.0, label %_3000006.0
_3000006.0:
  %_3000010 = load ptr, ptr %_2
  %_3000011 = getelementptr { ptr, ptr, i32, i32, ptr }, { ptr, ptr, i32, i32, ptr }* %_3000010, i32 0, i32 2
  %_3000012 = load i32, ptr %_3000011
  %_3000013 = icmp sle i32 1093, %_3000012
  %_3000014 = icmp sle i32 %_3000012, 1168
  %_3000015 = and i1 %_3000013, %_3000014
  br i1 %_3000015, label %_3000007.0, label %_3000008.0
_3000007.0:
  %_3000002 = call i1 @"_SM58scala.sys.process.processInternal$$anonfun$onIOInterrupt$1D11isDefinedAtL19java.lang.ThrowablezEO"(ptr dereferenceable_or_null(24) %_1, ptr dereferenceable_or_null(48) %_2)
  ret i1 %_3000002
_3000004.0:
  call ptr @"_SM34scala.scalanative.runtime.package$D16throwNullPointernEO"(ptr null)
  unreachable
_3000008.0:
  %_3000017 = phi ptr [%_2, %_3000006.0]
  %_3000018 = phi ptr [@"_SM19java.lang.ThrowableG4type", %_3000006.0]
  %_3000019 = load ptr, ptr %_3000017
  call ptr @"_SM34scala.scalanative.runtime.package$D14throwClassCastR_R_nEO"(ptr null, ptr %_3000019, ptr %_3000018)
  unreachable
}

define i1 @"_SM58scala.sys.process.processInternal$$anonfun$onIOInterrupt$1D11isDefinedAtL19java.lang.ThrowablezEO"(ptr %_1, ptr %_2) personality ptr @__gxx_personality_v0 {
_3000000.0:
  br label %_4000000.0
_4000000.0:
  %_8000004 = icmp eq ptr %_2, null
  br i1 %_8000004, label %_8000001.0, label %_8000002.0
_8000001.0:
  br label %_8000003.0
_8000002.0:
  %_8000005 = load ptr, ptr %_2
  %_8000006 = icmp eq ptr %_8000005, @"_SM30java.io.InterruptedIOExceptionG4type"
  br label %_8000003.0
_8000003.0:
  %_4000002 = phi i1 [%_8000006, %_8000002.0], [false, %_8000001.0]
  br i1 %_4000002, label %_5000000.0, label %_6000000.0
_5000000.0:
  br label %_7000000.0
_6000000.0:
  br label %_8000000.0
_8000000.0:
  br label %_7000000.0
_7000000.0:
  %_7000001 = phi i1 [false, %_8000000.0], [true, %_5000000.0]
  %_8000009 = load ptr, ptr @scalanative_GC_yieldpoint_trap
  %_8000010 = load volatile ptr, ptr %_8000009
  ret i1 %_7000001
}